opt subtitle "HI-TECH Software Omniscient Code Generator (Lite mode) build 10920"

opt pagewidth 120

	opt lm

	processor	16F877A
clrc	macro
	bcf	3,0
	endm
clrz	macro
	bcf	3,2
	endm
setc	macro
	bsf	3,0
	endm
setz	macro
	bsf	3,2
	endm
skipc	macro
	btfss	3,0
	endm
skipz	macro
	btfss	3,2
	endm
skipnc	macro
	btfsc	3,0
	endm
skipnz	macro
	btfsc	3,2
	endm
indf	equ	0
indf0	equ	0
pc	equ	2
pcl	equ	2
status	equ	3
fsr	equ	4
fsr0	equ	4
c	equ	1
z	equ	0
pclath	equ	10
	FNCALL	_main,_UART_Init
	FNCALL	_main,_UART_RxChar
	FNCALL	_main,_UART_TxChar
	FNROOT	_main
	global	_RCREG
psect	text98,local,class=CODE,delta=2
global __ptext98
__ptext98:
_RCREG	set	26
	global	_RCSTA
_RCSTA	set	24
	global	_TXREG
_TXREG	set	25
	global	_CARRY
_CARRY	set	24
	global	_GIE
_GIE	set	95
	global	_RCIF
_RCIF	set	101
	global	_TXIF
_TXIF	set	100
	global	_SPBRG
_SPBRG	set	153
	global	_TRISC
_TRISC	set	135
	global	_TXSTA
_TXSTA	set	152
	global	_EEADR
_EEADR	set	269
	global	_EEDATA
_EEDATA	set	268
	global	_EECON1
_EECON1	set	396
	global	_EECON2
_EECON2	set	397
	global	_RD
_RD	set	3168
	global	_WR
_WR	set	3169
	global	_WREN
_WREN	set	3170
	file	"rx_tx_char.as"
	line	#
psect cinit,class=CODE,delta=2
global start_initialization
start_initialization:

psect cinit,class=CODE,delta=2
global end_of_initialization

;End of C runtime variable initialization code

end_of_initialization:
clrf status
ljmp _main	;jump to C main() function
psect	cstackCOMMON,class=COMMON,space=1
global __pcstackCOMMON
__pcstackCOMMON:
	global	?_UART_Init
?_UART_Init:	; 0 bytes @ 0x0
	global	??_UART_Init
??_UART_Init:	; 0 bytes @ 0x0
	global	??_UART_RxChar
??_UART_RxChar:	; 0 bytes @ 0x0
	global	?_UART_TxChar
?_UART_TxChar:	; 0 bytes @ 0x0
	global	??_UART_TxChar
??_UART_TxChar:	; 0 bytes @ 0x0
	global	?_main
?_main:	; 0 bytes @ 0x0
	global	?_UART_RxChar
?_UART_RxChar:	; 1 bytes @ 0x0
	global	UART_TxChar@ch
UART_TxChar@ch:	; 1 bytes @ 0x0
	ds	1
	global	??_main
??_main:	; 0 bytes @ 0x1
	ds	1
	global	main@ch
main@ch:	; 1 bytes @ 0x2
	ds	1
;;Data sizes: Strings 0, constant 0, data 0, bss 0, persistent 0 stack 0
;;Auto spaces:   Size  Autos    Used
;; COMMON          14      3       3
;; BANK0           80      0       0
;; BANK1           80      0       0
;; BANK3           96      0       0
;; BANK2           96      0       0

;;
;; Pointer list with targets:



;;
;; Critical Paths under _main in COMMON
;;
;;   _main->_UART_TxChar
;;
;; Critical Paths under _main in BANK0
;;
;;   None.
;;
;; Critical Paths under _main in BANK1
;;
;;   None.
;;
;; Critical Paths under _main in BANK3
;;
;;   None.
;;
;; Critical Paths under _main in BANK2
;;
;;   None.

;;
;;Main: autosize = 0, tempsize = 1, incstack = 0, save=0
;;

;;
;;Call Graph Tables:
;;
;; ---------------------------------------------------------------------------------
;; (Depth) Function   	        Calls       Base Space   Used Autos Params    Refs
;; ---------------------------------------------------------------------------------
;; (0) _main                                                 2     2      0      30
;;                                              1 COMMON     2     2      0
;;                          _UART_Init
;;                        _UART_RxChar
;;                        _UART_TxChar
;; ---------------------------------------------------------------------------------
;; (1) _UART_TxChar                                          1     1      0      15
;;                                              0 COMMON     1     1      0
;; ---------------------------------------------------------------------------------
;; (1) _UART_RxChar                                          0     0      0       0
;; ---------------------------------------------------------------------------------
;; (1) _UART_Init                                            0     0      0       0
;; ---------------------------------------------------------------------------------
;; Estimated maximum stack depth 1
;; ---------------------------------------------------------------------------------

;; Call Graph Graphs:

;; _main (ROOT)
;;   _UART_Init
;;   _UART_RxChar
;;   _UART_TxChar
;;

;; Address spaces:

;;Name               Size   Autos  Total    Cost      Usage
;;BITCOMMON            E      0       0       0        0.0%
;;EEDATA             100      0       0       0        0.0%
;;NULL                 0      0       0       0        0.0%
;;CODE                 0      0       0       0        0.0%
;;COMMON               E      3       3       1       21.4%
;;BITSFR0              0      0       0       1        0.0%
;;SFR0                 0      0       0       1        0.0%
;;BITSFR1              0      0       0       2        0.0%
;;SFR1                 0      0       0       2        0.0%
;;STACK                0      0       1       2        0.0%
;;ABS                  0      0       0       3        0.0%
;;BITBANK0            50      0       0       4        0.0%
;;BITSFR3              0      0       0       4        0.0%
;;SFR3                 0      0       0       4        0.0%
;;BANK0               50      0       0       5        0.0%
;;BITSFR2              0      0       0       5        0.0%
;;SFR2                 0      0       0       5        0.0%
;;BITBANK1            50      0       0       6        0.0%
;;BANK1               50      0       0       7        0.0%
;;BITBANK3            60      0       0       8        0.0%
;;BANK3               60      0       0       9        0.0%
;;BITBANK2            60      0       0      10        0.0%
;;BANK2               60      0       0      11        0.0%
;;DATA                 0      0       0      12        0.0%

	global	_main
psect	maintext,global,class=CODE,delta=2
global __pmaintext
__pmaintext:

;; *************** function _main *****************
;; Defined at:
;;		line 17 in file "C:\Users\Xplore_labZ\Saved Games\Desktop\Sample_Programs_updated\Pic\Ultra_Pic\Serial_comm\rx_tx_char\main.c"
;; Parameters:    Size  Location     Type
;;		None
;; Auto vars:     Size  Location     Type
;;  ch              1    2[COMMON] unsigned char 
;; Return value:  Size  Location     Type
;;		None               void
;; Registers used:
;;		wreg, status,2, status,0, pclath, cstack
;; Tracked objects:
;;		On entry : 17F/0
;;		On exit  : 0/0
;;		Unchanged: 0/0
;; Data sizes:     COMMON   BANK0   BANK1   BANK3   BANK2
;;      Params:         0       0       0       0       0
;;      Locals:         1       0       0       0       0
;;      Temps:          1       0       0       0       0
;;      Totals:         2       0       0       0       0
;;Total ram usage:        2 bytes
;; Hardware stack levels required when called:    1
;; This function calls:
;;		_UART_Init
;;		_UART_RxChar
;;		_UART_TxChar
;; This function is called by:
;;		Startup code after reset
;; This function uses a non-reentrant model
;;
psect	maintext
	file	"C:\Users\Xplore_labZ\Saved Games\Desktop\Sample_Programs_updated\Pic\Ultra_Pic\Serial_comm\rx_tx_char\main.c"
	line	17
	global	__size_of_main
	__size_of_main	equ	__end_of_main-_main
	
_main:	
	opt	stack 7
; Regs used in _main: [wreg+status,2+status,0+pclath+cstack]
	line	21
	
l3466:	
;main.c: 18: char ch;
;main.c: 21: UART_Init();
	fcall	_UART_Init
	goto	l3468
	line	23
;main.c: 23: while(1)
	
l691:	
	line	26
	
l3468:	
;main.c: 24: {
;main.c: 26: ch=UART_RxChar();
	fcall	_UART_RxChar
	movwf	(??_main+0)+0
	movf	(??_main+0)+0,w
	movwf	(main@ch)
	line	28
	
l3470:	
;main.c: 28: UART_TxChar(ch);
	movf	(main@ch),w
	fcall	_UART_TxChar
	goto	l3468
	line	29
	
l692:	
	line	23
	goto	l3468
	
l693:	
	line	31
	
l694:	
	global	start
	ljmp	start
	opt stack 0
GLOBAL	__end_of_main
	__end_of_main:
;; =============== function _main ends ============

	signat	_main,88
	global	_UART_TxChar
psect	text99,local,class=CODE,delta=2
global __ptext99
__ptext99:

;; *************** function _UART_TxChar *****************
;; Defined at:
;;		line 80 in file "C:\Users\Xplore_labZ\Saved Games\Desktop\Sample_Programs_updated\Pic\Ultra_Pic\Serial_comm\rx_tx_char\uart.c"
;; Parameters:    Size  Location     Type
;;  ch              1    wreg     unsigned char 
;; Auto vars:     Size  Location     Type
;;  ch              1    0[COMMON] unsigned char 
;; Return value:  Size  Location     Type
;;		None               void
;; Registers used:
;;		wreg
;; Tracked objects:
;;		On entry : 0/0
;;		On exit  : 0/0
;;		Unchanged: 0/0
;; Data sizes:     COMMON   BANK0   BANK1   BANK3   BANK2
;;      Params:         0       0       0       0       0
;;      Locals:         1       0       0       0       0
;;      Temps:          0       0       0       0       0
;;      Totals:         1       0       0       0       0
;;Total ram usage:        1 bytes
;; Hardware stack levels used:    1
;; This function calls:
;;		Nothing
;; This function is called by:
;;		_main
;;		_UART_TxString
;;		_UART_RxString
;;		_UART_TxNumber
;; This function uses a non-reentrant model
;;
psect	text99
	file	"C:\Users\Xplore_labZ\Saved Games\Desktop\Sample_Programs_updated\Pic\Ultra_Pic\Serial_comm\rx_tx_char\uart.c"
	line	80
	global	__size_of_UART_TxChar
	__size_of_UART_TxChar	equ	__end_of_UART_TxChar-_UART_TxChar
	
_UART_TxChar:	
	opt	stack 7
; Regs used in _UART_TxChar: [wreg]
;UART_TxChar@ch stored from wreg
	movwf	(UART_TxChar@ch)
	line	81
	
l2576:	
;uart.c: 81: while(TXIF==0);
	goto	l1388
	
l1389:	
	
l1388:	
	bcf	status, 5	;RP0=0, select bank0
	bcf	status, 6	;RP1=0, select bank0
	btfss	(100/8),(100)&7
	goto	u21
	goto	u20
u21:
	goto	l1388
u20:
	
l1390:	
	line	82
;uart.c: 82: TXIF=0;
	bcf	(100/8),(100)&7
	line	83
	
l2578:	
;uart.c: 83: TXREG=ch;
	movf	(UART_TxChar@ch),w
	movwf	(25)	;volatile
	line	84
	
l1391:	
	return
	opt stack 0
GLOBAL	__end_of_UART_TxChar
	__end_of_UART_TxChar:
;; =============== function _UART_TxChar ends ============

	signat	_UART_TxChar,4216
	global	_UART_RxChar
psect	text100,local,class=CODE,delta=2
global __ptext100
__ptext100:

;; *************** function _UART_RxChar *****************
;; Defined at:
;;		line 54 in file "C:\Users\Xplore_labZ\Saved Games\Desktop\Sample_Programs_updated\Pic\Ultra_Pic\Serial_comm\rx_tx_char\uart.c"
;; Parameters:    Size  Location     Type
;;		None
;; Auto vars:     Size  Location     Type
;;		None
;; Return value:  Size  Location     Type
;;                  1    wreg      unsigned char 
;; Registers used:
;;		wreg
;; Tracked objects:
;;		On entry : 0/0
;;		On exit  : 0/0
;;		Unchanged: 0/0
;; Data sizes:     COMMON   BANK0   BANK1   BANK3   BANK2
;;      Params:         0       0       0       0       0
;;      Locals:         0       0       0       0       0
;;      Temps:          0       0       0       0       0
;;      Totals:         0       0       0       0       0
;;Total ram usage:        0 bytes
;; Hardware stack levels used:    1
;; This function calls:
;;		Nothing
;; This function is called by:
;;		_main
;;		_UART_RxString
;; This function uses a non-reentrant model
;;
psect	text100
	file	"C:\Users\Xplore_labZ\Saved Games\Desktop\Sample_Programs_updated\Pic\Ultra_Pic\Serial_comm\rx_tx_char\uart.c"
	line	54
	global	__size_of_UART_RxChar
	__size_of_UART_RxChar	equ	__end_of_UART_RxChar-_UART_RxChar
	
_UART_RxChar:	
	opt	stack 7
; Regs used in _UART_RxChar: [wreg]
	line	55
	
l2570:	
;uart.c: 55: while(RCIF==0);
	goto	l1382
	
l1383:	
	
l1382:	
	bcf	status, 5	;RP0=0, select bank0
	bcf	status, 6	;RP1=0, select bank0
	btfss	(101/8),(101)&7
	goto	u11
	goto	u10
u11:
	goto	l1382
u10:
	
l1384:	
	line	56
;uart.c: 56: RCIF=0;
	bcf	(101/8),(101)&7
	line	57
	
l2572:	
;uart.c: 57: return(RCREG);
	movf	(26),w	;volatile
	goto	l1385
	
l2574:	
	line	58
	
l1385:	
	return
	opt stack 0
GLOBAL	__end_of_UART_RxChar
	__end_of_UART_RxChar:
;; =============== function _UART_RxChar ends ============

	signat	_UART_RxChar,89
	global	_UART_Init
psect	text101,local,class=CODE,delta=2
global __ptext101
__ptext101:

;; *************** function _UART_Init *****************
;; Defined at:
;;		line 31 in file "C:\Users\Xplore_labZ\Saved Games\Desktop\Sample_Programs_updated\Pic\Ultra_Pic\Serial_comm\rx_tx_char\uart.c"
;; Parameters:    Size  Location     Type
;;		None
;; Auto vars:     Size  Location     Type
;;		None
;; Return value:  Size  Location     Type
;;		None               void
;; Registers used:
;;		wreg
;; Tracked objects:
;;		On entry : 0/0
;;		On exit  : 0/0
;;		Unchanged: 0/0
;; Data sizes:     COMMON   BANK0   BANK1   BANK3   BANK2
;;      Params:         0       0       0       0       0
;;      Locals:         0       0       0       0       0
;;      Temps:          0       0       0       0       0
;;      Totals:         0       0       0       0       0
;;Total ram usage:        0 bytes
;; Hardware stack levels used:    1
;; This function calls:
;;		Nothing
;; This function is called by:
;;		_main
;; This function uses a non-reentrant model
;;
psect	text101
	file	"C:\Users\Xplore_labZ\Saved Games\Desktop\Sample_Programs_updated\Pic\Ultra_Pic\Serial_comm\rx_tx_char\uart.c"
	line	31
	global	__size_of_UART_Init
	__size_of_UART_Init	equ	__end_of_UART_Init-_UART_Init
	
_UART_Init:	
	opt	stack 7
; Regs used in _UART_Init: [wreg]
	line	32
	
l2568:	
;uart.c: 32: TRISC=0x80;
	movlw	(080h)
	bsf	status, 5	;RP0=1, select bank1
	bcf	status, 6	;RP1=0, select bank1
	movwf	(135)^080h	;volatile
	line	33
;uart.c: 33: TXSTA=0x20;
	movlw	(020h)
	movwf	(152)^080h	;volatile
	line	34
;uart.c: 34: RCSTA=0x90;
	movlw	(090h)
	bcf	status, 5	;RP0=0, select bank0
	bcf	status, 6	;RP1=0, select bank0
	movwf	(24)	;volatile
	line	35
;uart.c: 35: SPBRG=31;
	movlw	(01Fh)
	bsf	status, 5	;RP0=1, select bank1
	bcf	status, 6	;RP1=0, select bank1
	movwf	(153)^080h	;volatile
	line	36
	
l1379:	
	return
	opt stack 0
GLOBAL	__end_of_UART_Init
	__end_of_UART_Init:
;; =============== function _UART_Init ends ============

	signat	_UART_Init,88
psect	text102,local,class=CODE,delta=2
global __ptext102
__ptext102:
	global	btemp
	btemp set 07Eh

	DABS	1,126,2	;btemp
	global	wtemp0
	wtemp0 set btemp
	end
