

HI-TECH Software PIC LITE Macro Assembler V9.83 build 10920 
                                                                                               Mon Dec 24 22:46:41 2012

HI-TECH Software Omniscient Code Generator (Lite mode) build 10920
     1  0000                     opt subtitle "HI-TECH Software Omniscient Code Generator (Lite mode) build 10920"
     2                           
     3                           opt pagewidth 120
     4                           
     5                           	opt lm
     6                           
     7                           	processor	16F877A
     8                           clrc	macro
     9                           	bcf	3,0
    10  0000                     	endm
    11                           clrz	macro
    12                           	bcf	3,2
    13  0000                     	endm
    14                           setc	macro
    15                           	bsf	3,0
    16  0000                     	endm
    17                           setz	macro
    18                           	bsf	3,2
    19  0000                     	endm
    20                           skipc	macro
    21                           	btfss	3,0
    22  0000                     	endm
    23                           skipz	macro
    24                           	btfss	3,2
    25  0000                     	endm
    26                           skipnc	macro
    27                           	btfsc	3,0
    28  0000                     	endm
    29                           skipnz	macro
    30                           	btfsc	3,2
    31  0000                     	endm
    32  0000                     indf	equ	0
    33  0000                     indf0	equ	0
    34  0002                     pc	equ	2
    35  0002                     pcl	equ	2
    36  0003                     status	equ	3
    37  0004                     fsr	equ	4
    38  0004                     fsr0	equ	4
    39  0001                     c	equ	1
    40  0000                     z	equ	0
    41  000A                     pclath	equ	10
    42                           	FNCALL	_main,_LCD_Init
    43                           	FNCALL	_main,_DS1307_Init
    44                           	FNCALL	_main,_DS1307_SetTime
    45                           	FNCALL	_main,_DS1307_SetDate
    46                           	FNCALL	_main,_LCD_DisplayString
    47                           	FNCALL	_main,_LCD_GoToLineTwo
    48                           	FNCALL	_main,_DS1307_GetTime
    49                           	FNCALL	_main,_LCD_GoToXY
    50                           	FNCALL	_main,_LCD_DisplayRtcTime
    51                           	FNCALL	_main,_DS1307_GetDate
    52                           	FNCALL	_main,_LCD_DisplayRtcDate
    53                           	FNCALL	_DS1307_GetDate,_I2C_Start
    54                           	FNCALL	_DS1307_GetDate,_DS1307_Write
    55                           	FNCALL	_DS1307_GetDate,_I2C_Stop
    56                           	FNCALL	_DS1307_GetDate,_DS1307_Read
    57                           	FNCALL	_DS1307_GetDate,_I2C_Ack
    58                           	FNCALL	_DS1307_GetDate,_I2C_NoAck
    59                           	FNCALL	_DS1307_GetTime,_I2C_Start
    60                           	FNCALL	_DS1307_GetTime,_DS1307_Write
    61                           	FNCALL	_DS1307_GetTime,_I2C_Stop
    62                           	FNCALL	_DS1307_GetTime,_DS1307_Read
    63                           	FNCALL	_DS1307_GetTime,_I2C_Ack
    64                           	FNCALL	_DS1307_GetTime,_I2C_NoAck
    65                           	FNCALL	_DS1307_SetDate,_I2C_Start
    66                           	FNCALL	_DS1307_SetDate,_DS1307_Write
    67                           	FNCALL	_DS1307_SetDate,_I2C_Stop
    68                           	FNCALL	_DS1307_SetTime,_I2C_Start
    69                           	FNCALL	_DS1307_SetTime,_DS1307_Write
    70                           	FNCALL	_DS1307_SetTime,_I2C_Stop
    71                           	FNCALL	_DS1307_Init,_I2C_Init
    72                           	FNCALL	_DS1307_Init,_I2C_Start
    73                           	FNCALL	_DS1307_Init,_DS1307_Write
    74                           	FNCALL	_DS1307_Init,_I2C_Stop
    75                           	FNCALL	_DS1307_Write,_I2C_Write
    76                           	FNCALL	_DS1307_Write,_I2C_Clock
    77                           	FNCALL	_LCD_DisplayRtcDate,_LCD_DataWrite
    78                           	FNCALL	_LCD_DisplayRtcTime,_LCD_DataWrite
    79                           	FNCALL	_LCD_GoToXY,_LCD_CmdWrite
    80                           	FNCALL	_LCD_GoToLineTwo,_LCD_CmdWrite
    81                           	FNCALL	_LCD_DisplayString,_LCD_DataWrite
    82                           	FNCALL	_LCD_Init,_delay_us
    83                           	FNCALL	_LCD_Init,_LCD_CmdWrite
    84                           	FNCALL	_LCD_DataWrite,_delay_us
    85                           	FNCALL	_LCD_DataWrite,_delay_ms
    86                           	FNCALL	_LCD_CmdWrite,_delay_us
    87                           	FNCALL	_LCD_CmdWrite,_delay_ms
    88                           	FNCALL	_I2C_NoAck,_I2C_Clock
    89                           	FNCALL	_I2C_Ack,_I2C_Clock
    90                           	FNCALL	_DS1307_Read,_I2C_Read
    91                           	FNCALL	_I2C_Write,_I2C_Clock
    92                           	FNCALL	_I2C_Read,_delay_us
    93                           	FNCALL	_I2C_Clock,_delay_us
    94                           	FNCALL	_I2C_Stop,_delay_us
    95                           	FNCALL	_I2C_Start,_delay_us
    96                           	FNCALL	_delay_ms,_delay_us
    97                           	FNROOT	_main
    98                           	global	_PORTB
    99                           psect	text520,local,class=CODE,delta=2
   100                           global __ptext520
   101  0000                     __ptext520:
   102  0006                     _PORTB	set	6
   103                           	global	_CARRY
   104  0018                     _CARRY	set	24
   105                           	global	_GIE
   106  005F                     _GIE	set	95
   107                           	global	_RB0
   108  0030                     _RB0	set	48
   109                           	global	_RB1
   110  0031                     _RB1	set	49
   111                           	global	_RB2
   112  0032                     _RB2	set	50
   113                           	global	_RC3
   114  003B                     _RC3	set	59
   115                           	global	_RC4
   116  003C                     _RC4	set	60
   117                           	global	_TRISB
   118  0086                     _TRISB	set	134
   119                           	global	_TRISC3
   120  043B                     _TRISC3	set	1083
   121                           	global	_TRISC4
   122  043C                     _TRISC4	set	1084
   123                           	global	_EEADR
   124  010D                     _EEADR	set	269
   125                           	global	_EEDATA
   126  010C                     _EEDATA	set	268
   127                           	global	_EECON1
   128  018C                     _EECON1	set	396
   129                           	global	_EECON2
   130  018D                     _EECON2	set	397
   131                           	global	_RD
   132  0C60                     _RD	set	3168
   133                           	global	_WR
   134  0C61                     _WR	set	3169
   135                           	global	_WREN
   136  0C62                     _WREN	set	3170
   137                           psect	strings,class=STRING,delta=2
   138                           global __pstrings
   139  0003                     __pstrings:
   140                           ;	global	stringdir,stringtab,__stringbase
   141  0003                     stringtab:
   142                           ;	String table - string pointers are 1 byte each
   143  0003                     stringcode:stringdir:
      + 0003                     stringdir:	
   144  0003  3000               movlw high(stringdir)
   145  0004  008A               movwf pclath
   146  0005  0804               movf fsr,w
   147  0006  0A84               incf fsr
   148  0007  0782               	addwf pc
   149  0008                     __stringbase:
   150  0008  3400               	retlw	0
   151                           psect	strings
   152                           	
   153  0009                     STR_1:	
   154  0009  3454               	retlw	84	;'T'
   155  000A  3469               	retlw	105	;'i'
   156  000B  346D               	retlw	109	;'m'
   157  000C  3465               	retlw	101	;'e'
   158  000D  343A               	retlw	58	;':'
   159  000E  3420               	retlw	32	;' '
   160  000F  3400               	retlw	0
   161                           psect	strings
   162                           	
   163  0010                     STR_2:	
   164  0010  3444               	retlw	68	;'D'
   165  0011  3461               	retlw	97	;'a'
   166  0012  3474               	retlw	116	;'t'
   167  0013  3465               	retlw	101	;'e'
   168  0014  343A               	retlw	58	;':'
   169  0015  3420               	retlw	32	;' '
   170  0016  3400               	retlw	0
   171                           psect	strings
   172                           	file	"Rtc_on_lcd.as"
   173                           	line	#
   174                           psect cinit,class=CODE,delta=2
   175                           global start_initialization
   176  0359                     start_initialization:
   177                           
   178                           psect cinit,class=CODE,delta=2
   179                           global end_of_initialization
   180                           
   181                           ;End of C runtime variable initialization code
   182                           
   183  0359                     end_of_initialization:
   184  0359  0183               clrf status
   185  035A  120A  118A  2F74   ljmp _main	;jump to C main() function
   186                           psect	cstackCOMMON,class=COMMON,space=1
   187                           global __pcstackCOMMON
   188  0070                     __pcstackCOMMON:
   189                           	global	?_LCD_Init
   190  0070                     ?_LCD_Init:	; 0 bytes @ 0x0
   191                           	global	?_DS1307_Init
   192  0070                     ?_DS1307_Init:	; 0 bytes @ 0x0
   193                           	global	?_LCD_DisplayString
   194  0070                     ?_LCD_DisplayString:	; 0 bytes @ 0x0
   195                           	global	?_LCD_GoToLineTwo
   196  0070                     ?_LCD_GoToLineTwo:	; 0 bytes @ 0x0
   197                           	global	?_I2C_Init
   198  0070                     ?_I2C_Init:	; 0 bytes @ 0x0
   199                           	global	??_I2C_Init
   200  0070                     ??_I2C_Init:	; 0 bytes @ 0x0
   201                           	global	?_I2C_Start
   202  0070                     ?_I2C_Start:	; 0 bytes @ 0x0
   203                           	global	?_DS1307_Write
   204  0070                     ?_DS1307_Write:	; 0 bytes @ 0x0
   205                           	global	?_I2C_Stop
   206  0070                     ?_I2C_Stop:	; 0 bytes @ 0x0
   207                           	global	?_I2C_Write
   208  0070                     ?_I2C_Write:	; 0 bytes @ 0x0
   209                           	global	?_I2C_Clock
   210  0070                     ?_I2C_Clock:	; 0 bytes @ 0x0
   211                           	global	?_I2C_Ack
   212  0070                     ?_I2C_Ack:	; 0 bytes @ 0x0
   213                           	global	?_I2C_NoAck
   214  0070                     ?_I2C_NoAck:	; 0 bytes @ 0x0
   215                           	global	?_LCD_CmdWrite
   216  0070                     ?_LCD_CmdWrite:	; 0 bytes @ 0x0
   217                           	global	?_main
   218  0070                     ?_main:	; 0 bytes @ 0x0
   219                           	global	?_delay_us
   220  0070                     ?_delay_us:	; 0 bytes @ 0x0
   221                           	global	?_LCD_DataWrite
   222  0070                     ?_LCD_DataWrite:	; 0 bytes @ 0x0
   223                           	global	?_I2C_Read
   224  0070                     ?_I2C_Read:	; 1 bytes @ 0x0
   225                           	global	?_DS1307_Read
   226  0070                     ?_DS1307_Read:	; 1 bytes @ 0x0
   227                           	global	delay_us@us_count
   228  0070                     delay_us@us_count:	; 2 bytes @ 0x0
   229  0070                     	ds	2
   230                           	global	??_I2C_Start
   231  0072                     ??_I2C_Start:	; 0 bytes @ 0x2
   232                           	global	??_I2C_Stop
   233  0072                     ??_I2C_Stop:	; 0 bytes @ 0x2
   234                           	global	??_I2C_Write
   235  0072                     ??_I2C_Write:	; 0 bytes @ 0x2
   236                           	global	??_I2C_Clock
   237  0072                     ??_I2C_Clock:	; 0 bytes @ 0x2
   238                           	global	??_I2C_Read
   239  0072                     ??_I2C_Read:	; 0 bytes @ 0x2
   240                           	global	??_I2C_Ack
   241  0072                     ??_I2C_Ack:	; 0 bytes @ 0x2
   242                           	global	??_I2C_NoAck
   243  0072                     ??_I2C_NoAck:	; 0 bytes @ 0x2
   244                           	global	??_delay_us
   245  0072                     ??_delay_us:	; 0 bytes @ 0x2
   246                           	global	?_delay_ms
   247  0072                     ?_delay_ms:	; 0 bytes @ 0x2
   248                           	global	delay_ms@ms_count
   249  0072                     delay_ms@ms_count:	; 2 bytes @ 0x2
   250  0072                     	ds	2
   251                           	global	??_LCD_CmdWrite
   252  0074                     ??_LCD_CmdWrite:	; 0 bytes @ 0x4
   253                           	global	??_delay_ms
   254  0074                     ??_delay_ms:	; 0 bytes @ 0x4
   255                           	global	??_LCD_DataWrite
   256  0074                     ??_LCD_DataWrite:	; 0 bytes @ 0x4
   257                           	global	I2C_Write@dat
   258  0074                     I2C_Write@dat:	; 1 bytes @ 0x4
   259                           	global	I2C_Read@i
   260  0074                     I2C_Read@i:	; 1 bytes @ 0x4
   261  0074                     	ds	1
   262                           	global	I2C_Write@i
   263  0075                     I2C_Write@i:	; 1 bytes @ 0x5
   264                           	global	I2C_Read@dat
   265  0075                     I2C_Read@dat:	; 1 bytes @ 0x5
   266                           	global	LCD_CmdWrite@cmd
   267  0075                     LCD_CmdWrite@cmd:	; 1 bytes @ 0x5
   268                           	global	LCD_DataWrite@dat
   269  0075                     LCD_DataWrite@dat:	; 1 bytes @ 0x5
   270  0075                     	ds	1
   271                           	global	??_LCD_Init
   272  0076                     ??_LCD_Init:	; 0 bytes @ 0x6
   273                           	global	??_LCD_DisplayString
   274  0076                     ??_LCD_DisplayString:	; 0 bytes @ 0x6
   275                           	global	??_LCD_GoToLineTwo
   276  0076                     ??_LCD_GoToLineTwo:	; 0 bytes @ 0x6
   277                           	global	?_LCD_GoToXY
   278  0076                     ?_LCD_GoToXY:	; 0 bytes @ 0x6
   279                           	global	?_LCD_DisplayRtcTime
   280  0076                     ?_LCD_DisplayRtcTime:	; 0 bytes @ 0x6
   281                           	global	?_LCD_DisplayRtcDate
   282  0076                     ?_LCD_DisplayRtcDate:	; 0 bytes @ 0x6
   283                           	global	??_DS1307_Write
   284  0076                     ??_DS1307_Write:	; 0 bytes @ 0x6
   285                           	global	??_DS1307_Read
   286  0076                     ??_DS1307_Read:	; 0 bytes @ 0x6
   287                           	global	DS1307_Write@dat
   288  0076                     DS1307_Write@dat:	; 1 bytes @ 0x6
   289                           	global	LCD_GoToXY@col
   290  0076                     LCD_GoToXY@col:	; 1 bytes @ 0x6
   291                           	global	LCD_DisplayRtcTime@min
   292  0076                     LCD_DisplayRtcTime@min:	; 1 bytes @ 0x6
   293                           	global	LCD_DisplayRtcDate@month
   294  0076                     LCD_DisplayRtcDate@month:	; 1 bytes @ 0x6
   295  0076                     	ds	1
   296                           	global	??_DS1307_Init
   297  0077                     ??_DS1307_Init:	; 0 bytes @ 0x7
   298                           	global	?_DS1307_SetTime
   299  0077                     ?_DS1307_SetTime:	; 0 bytes @ 0x7
   300                           	global	?_DS1307_SetDate
   301  0077                     ?_DS1307_SetDate:	; 0 bytes @ 0x7
   302                           	global	??_LCD_GoToXY
   303  0077                     ??_LCD_GoToXY:	; 0 bytes @ 0x7
   304                           	global	DS1307_Read@dat
   305  0077                     DS1307_Read@dat:	; 1 bytes @ 0x7
   306                           	global	DS1307_SetTime@mm
   307  0077                     DS1307_SetTime@mm:	; 1 bytes @ 0x7
   308                           	global	DS1307_SetDate@mm
   309  0077                     DS1307_SetDate@mm:	; 1 bytes @ 0x7
   310                           	global	LCD_DisplayString@string_ptr
   311  0077                     LCD_DisplayString@string_ptr:	; 1 bytes @ 0x7
   312                           	global	LCD_DisplayRtcTime@sec
   313  0077                     LCD_DisplayRtcTime@sec:	; 1 bytes @ 0x7
   314                           	global	LCD_DisplayRtcDate@year
   315  0077                     LCD_DisplayRtcDate@year:	; 1 bytes @ 0x7
   316  0077                     	ds	1
   317                           	global	?_DS1307_GetTime
   318  0078                     ?_DS1307_GetTime:	; 0 bytes @ 0x8
   319                           	global	??_LCD_DisplayRtcTime
   320  0078                     ??_LCD_DisplayRtcTime:	; 0 bytes @ 0x8
   321                           	global	?_DS1307_GetDate
   322  0078                     ?_DS1307_GetDate:	; 0 bytes @ 0x8
   323                           	global	??_LCD_DisplayRtcDate
   324  0078                     ??_LCD_DisplayRtcDate:	; 0 bytes @ 0x8
   325                           	global	DS1307_SetTime@ss
   326  0078                     DS1307_SetTime@ss:	; 1 bytes @ 0x8
   327                           	global	DS1307_SetDate@yy
   328  0078                     DS1307_SetDate@yy:	; 1 bytes @ 0x8
   329                           	global	DS1307_GetTime@m_ptr
   330  0078                     DS1307_GetTime@m_ptr:	; 1 bytes @ 0x8
   331                           	global	DS1307_GetDate@m_ptr
   332  0078                     DS1307_GetDate@m_ptr:	; 1 bytes @ 0x8
   333  0078                     	ds	1
   334                           	global	??_DS1307_SetTime
   335  0079                     ??_DS1307_SetTime:	; 0 bytes @ 0x9
   336                           	global	??_DS1307_SetDate
   337  0079                     ??_DS1307_SetDate:	; 0 bytes @ 0x9
   338                           	global	DS1307_SetTime@hh
   339  0079                     DS1307_SetTime@hh:	; 1 bytes @ 0x9
   340                           	global	DS1307_SetDate@dd
   341  0079                     DS1307_SetDate@dd:	; 1 bytes @ 0x9
   342                           	global	DS1307_GetTime@s_ptr
   343  0079                     DS1307_GetTime@s_ptr:	; 1 bytes @ 0x9
   344                           	global	DS1307_GetDate@y_ptr
   345  0079                     DS1307_GetDate@y_ptr:	; 1 bytes @ 0x9
   346                           	global	LCD_GoToXY@row
   347  0079                     LCD_GoToXY@row:	; 1 bytes @ 0x9
   348                           	global	LCD_DisplayRtcTime@hour
   349  0079                     LCD_DisplayRtcTime@hour:	; 1 bytes @ 0x9
   350                           	global	LCD_DisplayRtcDate@day
   351  0079                     LCD_DisplayRtcDate@day:	; 1 bytes @ 0x9
   352  0079                     	ds	1
   353                           	global	??_DS1307_GetTime
   354  007A                     ??_DS1307_GetTime:	; 0 bytes @ 0xA
   355                           	global	??_DS1307_GetDate
   356  007A                     ??_DS1307_GetDate:	; 0 bytes @ 0xA
   357                           	global	LCD_GoToXY@pos
   358  007A                     LCD_GoToXY@pos:	; 1 bytes @ 0xA
   359  007A                     	ds	1
   360                           	global	DS1307_GetTime@h_ptr
   361  007B                     DS1307_GetTime@h_ptr:	; 1 bytes @ 0xB
   362                           	global	DS1307_GetDate@d_ptr
   363  007B                     DS1307_GetDate@d_ptr:	; 1 bytes @ 0xB
   364  007B                     	ds	1
   365                           	global	??_main
   366  007C                     ??_main:	; 0 bytes @ 0xC
   367  007C                     	ds	2
   368                           psect	cstackBANK0,class=BANK0,space=1
   369                           global __pcstackBANK0
   370  0020                     __pcstackBANK0:
   371                           	global	main@sec
   372  0020                     main@sec:	; 1 bytes @ 0x0
   373  0020                     	ds	1
   374                           	global	main@min
   375  0021                     main@min:	; 1 bytes @ 0x1
   376  0021                     	ds	1
   377                           	global	main@hour
   378  0022                     main@hour:	; 1 bytes @ 0x2
   379  0022                     	ds	1
   380                           	global	main@day
   381  0023                     main@day:	; 1 bytes @ 0x3
   382  0023                     	ds	1
   383                           	global	main@month
   384  0024                     main@month:	; 1 bytes @ 0x4
   385  0024                     	ds	1
   386                           	global	main@year
   387  0025                     main@year:	; 1 bytes @ 0x5
   388  0025                     	ds	1
   389 ;;Data sizes: Strings 14, constant 0, data 0, bss 0, persistent 0 stack 0
   390 ;;Auto spaces:   Size  Autos    Used
   391 ;; COMMON          14     14      14
   392 ;; BANK0           80      6       6
   393 ;; BANK1           80      0       0
   394 ;; BANK3           96      0       0
   395 ;; BANK2           96      0       0
   396                           
   397 ;;
   398 ;; Pointer list with targets:
   399                           
   400 ;; LCD_DisplayString@string_ptr	PTR unsigned char  size(1) Largest target is 7
   401 ;;		 -> STR_2(CODE[7]), STR_1(CODE[7]), 
   402 ;;
   403 ;; DS1307_GetDate@y_ptr	PTR unsigned char  size(1) Largest target is 1
   404 ;;		 -> main@year(BANK0[1]), 
   405 ;;
   406 ;; DS1307_GetDate@m_ptr	PTR unsigned char  size(1) Largest target is 1
   407 ;;		 -> main@month(BANK0[1]), 
   408 ;;
   409 ;; DS1307_GetDate@d_ptr	PTR unsigned char  size(1) Largest target is 1
   410 ;;		 -> main@day(BANK0[1]), 
   411 ;;
   412 ;; DS1307_GetTime@h_ptr	PTR unsigned char  size(1) Largest target is 1
   413 ;;		 -> main@hour(BANK0[1]), 
   414 ;;
   415 ;; DS1307_GetTime@m_ptr	PTR unsigned char  size(1) Largest target is 1
   416 ;;		 -> main@min(BANK0[1]), 
   417 ;;
   418 ;; DS1307_GetTime@s_ptr	PTR unsigned char  size(1) Largest target is 1
   419 ;;		 -> main@sec(BANK0[1]), 
   420 ;;
   421                           
   422                           
   423 ;;
   424 ;; Critical Paths under _main in COMMON
   425 ;;
   426 ;;   _main->_DS1307_GetTime
   427 ;;   _main->_DS1307_GetDate
   428 ;;   _DS1307_GetDate->_DS1307_Read
   429 ;;   _DS1307_GetTime->_DS1307_Read
   430 ;;   _DS1307_SetDate->_DS1307_Write
   431 ;;   _DS1307_SetTime->_DS1307_Write
   432 ;;   _DS1307_Init->_DS1307_Write
   433 ;;   _DS1307_Write->_I2C_Write
   434 ;;   _LCD_DisplayRtcDate->_LCD_DataWrite
   435 ;;   _LCD_DisplayRtcTime->_LCD_DataWrite
   436 ;;   _LCD_GoToXY->_LCD_CmdWrite
   437 ;;   _LCD_GoToLineTwo->_LCD_CmdWrite
   438 ;;   _LCD_DisplayString->_LCD_DataWrite
   439 ;;   _LCD_Init->_LCD_CmdWrite
   440 ;;   _LCD_DataWrite->_delay_ms
   441 ;;   _LCD_CmdWrite->_delay_ms
   442 ;;   _DS1307_Read->_I2C_Read
   443 ;;   _I2C_Read->_delay_us
   444 ;;   _I2C_Clock->_delay_us
   445 ;;   _I2C_Stop->_delay_us
   446 ;;   _I2C_Start->_delay_us
   447 ;;   _delay_ms->_delay_us
   448 ;;
   449 ;; Critical Paths under _main in BANK0
   450 ;;
   451 ;;   None.
   452 ;;
   453 ;; Critical Paths under _main in BANK1
   454 ;;
   455 ;;   None.
   456 ;;
   457 ;; Critical Paths under _main in BANK3
   458 ;;
   459 ;;   None.
   460 ;;
   461 ;; Critical Paths under _main in BANK2
   462 ;;
   463 ;;   None.
   464                           
   465 ;;
   466 ;;Main: autosize = 0, tempsize = 2, incstack = 0, save=0
   467 ;;
   468                           
   469 ;;
   470 ;;Call Graph Tables:
   471 ;;
   472 ;; ---------------------------------------------------------------------------------
   473 ;; (Depth) Function   	        Calls       Base Space   Used Autos Params    Refs
   474 ;; ---------------------------------------------------------------------------------
   475 ;; (0) _main                                                 8     8      0    3123
   476 ;;                                             12 COMMON     2     2      0
   477 ;;                                              0 BANK0      6     6      0
   478 ;;                           _LCD_Init
   479 ;;                        _DS1307_Init
   480 ;;                     _DS1307_SetTime
   481 ;;                     _DS1307_SetDate
   482 ;;                  _LCD_DisplayString
   483 ;;                    _LCD_GoToLineTwo
   484 ;;                     _DS1307_GetTime
   485 ;;                         _LCD_GoToXY
   486 ;;                 _LCD_DisplayRtcTime
   487 ;;                     _DS1307_GetDate
   488 ;;                 _LCD_DisplayRtcDate
   489 ;; ---------------------------------------------------------------------------------
   490 ;; (1) _DS1307_GetDate                                       4     2      2     478
   491 ;;                                              8 COMMON     4     2      2
   492 ;;                          _I2C_Start
   493 ;;                       _DS1307_Write
   494 ;;                           _I2C_Stop
   495 ;;                        _DS1307_Read
   496 ;;                            _I2C_Ack
   497 ;;                          _I2C_NoAck
   498 ;; ---------------------------------------------------------------------------------
   499 ;; (1) _DS1307_GetTime                                       4     2      2     478
   500 ;;                                              8 COMMON     4     2      2
   501 ;;                          _I2C_Start
   502 ;;                       _DS1307_Write
   503 ;;                           _I2C_Stop
   504 ;;                        _DS1307_Read
   505 ;;                            _I2C_Ack
   506 ;;                          _I2C_NoAck
   507 ;; ---------------------------------------------------------------------------------
   508 ;; (1) _DS1307_SetDate                                       3     1      2     271
   509 ;;                                              7 COMMON     3     1      2
   510 ;;                          _I2C_Start
   511 ;;                       _DS1307_Write
   512 ;;                           _I2C_Stop
   513 ;; ---------------------------------------------------------------------------------
   514 ;; (1) _DS1307_SetTime                                       3     1      2     271
   515 ;;                                              7 COMMON     3     1      2
   516 ;;                          _I2C_Start
   517 ;;                       _DS1307_Write
   518 ;;                           _I2C_Stop
   519 ;; ---------------------------------------------------------------------------------
   520 ;; (1) _DS1307_Init                                          0     0      0     205
   521 ;;                           _I2C_Init
   522 ;;                          _I2C_Start
   523 ;;                       _DS1307_Write
   524 ;;                           _I2C_Stop
   525 ;; ---------------------------------------------------------------------------------
   526 ;; (2) _DS1307_Write                                         1     1      0     159
   527 ;;                                              6 COMMON     1     1      0
   528 ;;                          _I2C_Write
   529 ;;                          _I2C_Clock
   530 ;; ---------------------------------------------------------------------------------
   531 ;; (1) _LCD_DisplayRtcDate                                   4     2      2     245
   532 ;;                                              6 COMMON     4     2      2
   533 ;;                      _LCD_DataWrite
   534 ;; ---------------------------------------------------------------------------------
   535 ;; (1) _LCD_DisplayRtcTime                                   4     2      2     245
   536 ;;                                              6 COMMON     4     2      2
   537 ;;                      _LCD_DataWrite
   538 ;; ---------------------------------------------------------------------------------
   539 ;; (1) _LCD_GoToXY                                           5     4      1     247
   540 ;;                                              6 COMMON     5     4      1
   541 ;;                       _LCD_CmdWrite
   542 ;; ---------------------------------------------------------------------------------
   543 ;; (1) _LCD_GoToLineTwo                                      0     0      0     113
   544 ;;                       _LCD_CmdWrite
   545 ;; ---------------------------------------------------------------------------------
   546 ;; (1) _LCD_DisplayString                                    2     2      0     158
   547 ;;                                              6 COMMON     2     2      0
   548 ;;                      _LCD_DataWrite
   549 ;; ---------------------------------------------------------------------------------
   550 ;; (1) _LCD_Init                                             0     0      0     136
   551 ;;                           _delay_us
   552 ;;                       _LCD_CmdWrite
   553 ;; ---------------------------------------------------------------------------------
   554 ;; (2) _LCD_DataWrite                                        2     2      0     113
   555 ;;                                              4 COMMON     2     2      0
   556 ;;                           _delay_us
   557 ;;                           _delay_ms
   558 ;; ---------------------------------------------------------------------------------
   559 ;; (2) _LCD_CmdWrite                                         2     2      0     113
   560 ;;                                              4 COMMON     2     2      0
   561 ;;                           _delay_us
   562 ;;                           _delay_ms
   563 ;; ---------------------------------------------------------------------------------
   564 ;; (2) _I2C_NoAck                                            0     0      0      23
   565 ;;                          _I2C_Clock
   566 ;; ---------------------------------------------------------------------------------
   567 ;; (2) _I2C_Ack                                              0     0      0      23
   568 ;;                          _I2C_Clock
   569 ;; ---------------------------------------------------------------------------------
   570 ;; (2) _DS1307_Read                                          2     2      0     161
   571 ;;                                              6 COMMON     2     2      0
   572 ;;                           _I2C_Read
   573 ;; ---------------------------------------------------------------------------------
   574 ;; (3) _I2C_Write                                            4     4      0     114
   575 ;;                                              2 COMMON     4     4      0
   576 ;;                          _I2C_Clock
   577 ;; ---------------------------------------------------------------------------------
   578 ;; (3) _I2C_Read                                             4     4      0     138
   579 ;;                                              2 COMMON     4     4      0
   580 ;;                           _delay_us
   581 ;; ---------------------------------------------------------------------------------
   582 ;; (3) _I2C_Clock                                            0     0      0      23
   583 ;;                           _delay_us
   584 ;; ---------------------------------------------------------------------------------
   585 ;; (2) _I2C_Stop                                             0     0      0      23
   586 ;;                           _delay_us
   587 ;; ---------------------------------------------------------------------------------
   588 ;; (2) _I2C_Start                                            0     0      0      23
   589 ;;                           _delay_us
   590 ;; ---------------------------------------------------------------------------------
   591 ;; (3) _delay_ms                                             2     0      2      46
   592 ;;                                              2 COMMON     2     0      2
   593 ;;                           _delay_us
   594 ;; ---------------------------------------------------------------------------------
   595 ;; (2) _I2C_Init                                             0     0      0       0
   596 ;; ---------------------------------------------------------------------------------
   597 ;; (4) _delay_us                                             2     0      2      23
   598 ;;                                              0 COMMON     2     0      2
   599 ;; ---------------------------------------------------------------------------------
   600 ;; Estimated maximum stack depth 4
   601 ;; ---------------------------------------------------------------------------------
   602                           
   603 ;; Call Graph Graphs:
   604                           
   605 ;; _main (ROOT)
   606 ;;   _LCD_Init
   607 ;;     _delay_us
   608 ;;     _LCD_CmdWrite
   609 ;;       _delay_us
   610 ;;       _delay_ms
   611 ;;         _delay_us
   612 ;;   _DS1307_Init
   613 ;;     _I2C_Init
   614 ;;     _I2C_Start
   615 ;;       _delay_us
   616 ;;     _DS1307_Write
   617 ;;       _I2C_Write
   618 ;;         _I2C_Clock
   619 ;;           _delay_us
   620 ;;       _I2C_Clock
   621 ;;         _delay_us
   622 ;;     _I2C_Stop
   623 ;;       _delay_us
   624 ;;   _DS1307_SetTime
   625 ;;     _I2C_Start
   626 ;;       _delay_us
   627 ;;     _DS1307_Write
   628 ;;       _I2C_Write
   629 ;;         _I2C_Clock
   630 ;;           _delay_us
   631 ;;       _I2C_Clock
   632 ;;         _delay_us
   633 ;;     _I2C_Stop
   634 ;;       _delay_us
   635 ;;   _DS1307_SetDate
   636 ;;     _I2C_Start
   637 ;;       _delay_us
   638 ;;     _DS1307_Write
   639 ;;       _I2C_Write
   640 ;;         _I2C_Clock
   641 ;;           _delay_us
   642 ;;       _I2C_Clock
   643 ;;         _delay_us
   644 ;;     _I2C_Stop
   645 ;;       _delay_us
   646 ;;   _LCD_DisplayString
   647 ;;     _LCD_DataWrite
   648 ;;       _delay_us
   649 ;;       _delay_ms
   650 ;;         _delay_us
   651 ;;   _LCD_GoToLineTwo
   652 ;;     _LCD_CmdWrite
   653 ;;       _delay_us
   654 ;;       _delay_ms
   655 ;;         _delay_us
   656 ;;   _DS1307_GetTime
   657 ;;     _I2C_Start
   658 ;;       _delay_us
   659 ;;     _DS1307_Write
   660 ;;       _I2C_Write
   661 ;;         _I2C_Clock
   662 ;;           _delay_us
   663 ;;       _I2C_Clock
   664 ;;         _delay_us
   665 ;;     _I2C_Stop
   666 ;;       _delay_us
   667 ;;     _DS1307_Read
   668 ;;       _I2C_Read
   669 ;;         _delay_us
   670 ;;     _I2C_Ack
   671 ;;       _I2C_Clock
   672 ;;         _delay_us
   673 ;;     _I2C_NoAck
   674 ;;       _I2C_Clock
   675 ;;         _delay_us
   676 ;;   _LCD_GoToXY
   677 ;;     _LCD_CmdWrite
   678 ;;       _delay_us
   679 ;;       _delay_ms
   680 ;;         _delay_us
   681 ;;   _LCD_DisplayRtcTime
   682 ;;     _LCD_DataWrite
   683 ;;       _delay_us
   684 ;;       _delay_ms
   685 ;;         _delay_us
   686 ;;   _DS1307_GetDate
   687 ;;     _I2C_Start
   688 ;;       _delay_us
   689 ;;     _DS1307_Write
   690 ;;       _I2C_Write
   691 ;;         _I2C_Clock
   692 ;;           _delay_us
   693 ;;       _I2C_Clock
   694 ;;         _delay_us
   695 ;;     _I2C_Stop
   696 ;;       _delay_us
   697 ;;     _DS1307_Read
   698 ;;       _I2C_Read
   699 ;;         _delay_us
   700 ;;     _I2C_Ack
   701 ;;       _I2C_Clock
   702 ;;         _delay_us
   703 ;;     _I2C_NoAck
   704 ;;       _I2C_Clock
   705 ;;         _delay_us
   706 ;;   _LCD_DisplayRtcDate
   707 ;;     _LCD_DataWrite
   708 ;;       _delay_us
   709 ;;       _delay_ms
   710 ;;         _delay_us
   711 ;;
   712                           
   713 ;; Address spaces:
   714                           
   715 ;;Name               Size   Autos  Total    Cost      Usage
   716 ;;BITCOMMON            E      0       0       0        0.0%
   717 ;;EEDATA             100      0       0       0        0.0%
   718 ;;NULL                 0      0       0       0        0.0%
   719 ;;CODE                 0      0       0       0        0.0%
   720 ;;COMMON               E      E       E       1      100.0%
   721 ;;BITSFR0              0      0       0       1        0.0%
   722 ;;SFR0                 0      0       0       1        0.0%
   723 ;;BITSFR1              0      0       0       2        0.0%
   724 ;;SFR1                 0      0       0       2        0.0%
   725 ;;STACK                0      0       5       2        0.0%
   726 ;;ABS                  0      0       0       3        0.0%
   727 ;;BITBANK0            50      0       0       4        0.0%
   728 ;;BITSFR3              0      0       0       4        0.0%
   729 ;;SFR3                 0      0       0       4        0.0%
   730 ;;BANK0               50      6       6       5        7.5%
   731 ;;BITSFR2              0      0       0       5        0.0%
   732 ;;SFR2                 0      0       0       5        0.0%
   733 ;;BITBANK1            50      0       0       6        0.0%
   734 ;;BANK1               50      0       0       7        0.0%
   735 ;;BITBANK3            60      0       0       8        0.0%
   736 ;;BANK3               60      0       0       9        0.0%
   737 ;;BITBANK2            60      0       0      10        0.0%
   738 ;;BANK2               60      0       0      11        0.0%
   739 ;;DATA                 0      0       0      12        0.0%
   740                           
   741                           	global	_main
   742                           psect	maintext,global,class=CODE,delta=2
   743                           global __pmaintext
   744  0774                     __pmaintext:
   745                           
   746 ;; *************** function _main *****************
   747 ;; Defined at:
   748 ;;		line 19 in file "C:\Users\Xplore_labZ\Saved Games\Desktop\Sample_Programs_updated\Pic\Pro_Pic\RTC\RTC_LCD\main.c"
   749 ;; Parameters:    Size  Location     Type
   750 ;;		None
   751 ;; Auto vars:     Size  Location     Type
   752 ;;  year            1    5[BANK0 ] unsigned char 
   753 ;;  month           1    4[BANK0 ] unsigned char 
   754 ;;  day             1    3[BANK0 ] unsigned char 
   755 ;;  hour            1    2[BANK0 ] unsigned char 
   756 ;;  min             1    1[BANK0 ] unsigned char 
   757 ;;  sec             1    0[BANK0 ] unsigned char 
   758 ;; Return value:  Size  Location     Type
   759 ;;		None               void
   760 ;; Registers used:
   761 ;;		wreg, fsr0l, fsr0h, status,2, status,0, pclath, cstack
   762 ;; Tracked objects:
   763 ;;		On entry : 17F/0
   764 ;;		On exit  : 0/0
   765 ;;		Unchanged: 0/0
   766 ;; Data sizes:     COMMON   BANK0   BANK1   BANK3   BANK2
   767 ;;      Params:         0       0       0       0       0
   768 ;;      Locals:         0       6       0       0       0
   769 ;;      Temps:          2       0       0       0       0
   770 ;;      Totals:         2       6       0       0       0
   771 ;;Total ram usage:        8 bytes
   772 ;; Hardware stack levels required when called:    5
   773 ;; This function calls:
   774 ;;		_LCD_Init
   775 ;;		_DS1307_Init
   776 ;;		_DS1307_SetTime
   777 ;;		_DS1307_SetDate
   778 ;;		_LCD_DisplayString
   779 ;;		_LCD_GoToLineTwo
   780 ;;		_DS1307_GetTime
   781 ;;		_LCD_GoToXY
   782 ;;		_LCD_DisplayRtcTime
   783 ;;		_DS1307_GetDate
   784 ;;		_LCD_DisplayRtcDate
   785 ;; This function is called by:
   786 ;;		Startup code after reset
   787 ;; This function uses a non-reentrant model
   788 ;;
   789                           psect	maintext
   790                           	file	"C:\Users\Xplore_labZ\Saved Games\Desktop\Sample_Programs_updated\Pic\Pro_Pic\RTC\
                                 RTC_LCD\main.c"
   791                           	line	19
   792                           	global	__size_of_main
   793  008C                     	__size_of_main	equ	__end_of_main-_main
   794                           	
   795  0774                     _main:	
   796                           	opt	stack 3
   797                           ; Regs used in _main: [wreg-fsr0h+status,2+status,0+pclath+cstack]
   798                           	line	23
   799                           	
   800  0774                     l6189:	
   801                           ;main.c: 20: unsigned char sec,min,hour,day,month,year;
   802                           ;main.c: 23: LCD_Init();
   803  0774  120A  118A  24EC   	fcall	_LCD_Init
              120A  118A         
   804                           	line	26
   805                           ;main.c: 26: DS1307_Init();
   806  0779  120A  118A  23FC   	fcall	_DS1307_Init
              120A  118A         
   807                           	line	30
   808                           ;main.c: 30: DS1307_SetTime(0x10,0x40,0x20);
   809  077E  3040               	movlw	(040h)
   810  077F  00FC               	movwf	(??_main+0)+0
   811  0780  087C               	movf	(??_main+0)+0,w
   812  0781  00F7               	movwf	(?_DS1307_SetTime)
   813  0782  3020               	movlw	(020h)
   814  0783  00FD               	movwf	(??_main+1)+0
   815  0784  087D               	movf	(??_main+1)+0,w
   816  0785  00F8               	movwf	0+(?_DS1307_SetTime)+01h
   817  0786  3010               	movlw	(010h)
   818  0787  120A  118A  2498   	fcall	_DS1307_SetTime
              120A  118A         
   819                           	line	31
   820                           ;main.c: 31: DS1307_SetDate(0x01,0x12,0x12);
   821  078C  3012               	movlw	(012h)
   822  078D  00FC               	movwf	(??_main+0)+0
   823  078E  087C               	movf	(??_main+0)+0,w
   824  078F  00F7               	movwf	(?_DS1307_SetDate)
   825  0790  3012               	movlw	(012h)
   826  0791  00FD               	movwf	(??_main+1)+0
   827  0792  087D               	movf	(??_main+1)+0,w
   828  0793  00F8               	movwf	0+(?_DS1307_SetDate)+01h
   829  0794  3001               	movlw	(01h)
   830  0795  120A  118A  24C2   	fcall	_DS1307_SetDate
              120A  118A         
   831                           	line	34
   832                           	
   833  079A                     l6191:	
   834                           ;main.c: 34: LCD_DisplayString("Time: ");
   835  079A  3001               	movlw	((STR_1-__stringbase))&0ffh
   836  079B  120A  118A  23DB   	fcall	_LCD_DisplayString
              120A  118A         
   837                           	line	37
   838                           	
   839  07A0                     l6193:	
   840                           ;main.c: 37: LCD_GoToLineTwo();
   841  07A0  120A  118A  2362   	fcall	_LCD_GoToLineTwo
              120A  118A         
   842                           	line	38
   843                           ;main.c: 38: LCD_DisplayString("Date: ");
   844  07A5  3008               	movlw	((STR_2-__stringbase))&0ffh
   845  07A6  120A  118A  23DB   	fcall	_LCD_DisplayString
              120A  118A         
   846                           	line	41
   847                           ;main.c: 41: while(1)
   848                           	
   849  07AB                     l707:	
   850                           	line	44
   851                           ;main.c: 42: {
   852                           ;main.c: 44: DS1307_GetTime(&hour,&min,&sec);
   853  07AB  3021               	movlw	(main@min)&0ffh
   854  07AC  00FC               	movwf	(??_main+0)+0
   855  07AD  087C               	movf	(??_main+0)+0,w
   856  07AE  00F8               	movwf	(?_DS1307_GetTime)
   857  07AF  3020               	movlw	(main@sec)&0ffh
   858  07B0  00FD               	movwf	(??_main+1)+0
   859  07B1  087D               	movf	(??_main+1)+0,w
   860  07B2  00F9               	movwf	0+(?_DS1307_GetTime)+01h
   861  07B3  3022               	movlw	(main@hour)&0ffh
   862  07B4  120A  118A  26C4   	fcall	_DS1307_GetTime
              120A  118A         
   863                           	line	47
   864                           	
   865  07B9                     l6195:	
   866                           ;main.c: 47: LCD_GoToXY(0,6);
   867  07B9  3006               	movlw	(06h)
   868  07BA  00FC               	movwf	(??_main+0)+0
   869  07BB  087C               	movf	(??_main+0)+0,w
   870  07BC  00F6               	movwf	(?_LCD_GoToXY)
   871  07BD  3000               	movlw	(0)
   872  07BE  120A  118A  246F   	fcall	_LCD_GoToXY
              120A  118A         
   873                           	line	48
   874                           	
   875  07C3                     l6197:	
   876                           ;main.c: 48: LCD_DisplayRtcTime(hour,min,sec);
   877  07C3  1283               	bcf	status, 5	;RP0=0, select bank0
   878  07C4  1303               	bcf	status, 6	;RP1=0, select bank0
   879  07C5  0821               	movf	(main@min),w
   880  07C6  00FC               	movwf	(??_main+0)+0
   881  07C7  087C               	movf	(??_main+0)+0,w
   882  07C8  00F6               	movwf	(?_LCD_DisplayRtcTime)
   883  07C9  0820               	movf	(main@sec),w
   884  07CA  00FD               	movwf	(??_main+1)+0
   885  07CB  087D               	movf	(??_main+1)+0,w
   886  07CC  00F7               	movwf	0+(?_LCD_DisplayRtcTime)+01h
   887  07CD  0822               	movf	(main@hour),w
   888  07CE  120A  118A  2618   	fcall	_LCD_DisplayRtcTime
              120A  118A         
   889                           	line	52
   890                           ;main.c: 52: DS1307_GetDate(&day,&month,&year);
   891  07D3  3024               	movlw	(main@month)&0ffh
   892  07D4  00FC               	movwf	(??_main+0)+0
   893  07D5  087C               	movf	(??_main+0)+0,w
   894  07D6  00F8               	movwf	(?_DS1307_GetDate)
   895  07D7  3025               	movlw	(main@year)&0ffh
   896  07D8  00FD               	movwf	(??_main+1)+0
   897  07D9  087D               	movf	(??_main+1)+0,w
   898  07DA  00F9               	movwf	0+(?_DS1307_GetDate)+01h
   899  07DB  3023               	movlw	(main@day)&0ffh
   900  07DC  120A  118A  271C   	fcall	_DS1307_GetDate
              120A  118A         
   901                           	line	55
   902                           	
   903  07E1                     l6199:	
   904                           ;main.c: 55: LCD_GoToXY(1,6);
   905  07E1  3006               	movlw	(06h)
   906  07E2  00FC               	movwf	(??_main+0)+0
   907  07E3  087C               	movf	(??_main+0)+0,w
   908  07E4  00F6               	movwf	(?_LCD_GoToXY)
   909  07E5  3001               	movlw	(01h)
   910  07E6  120A  118A  246F   	fcall	_LCD_GoToXY
              120A  118A         
   911                           	line	56
   912                           	
   913  07EB                     l6201:	
   914                           ;main.c: 56: LCD_DisplayRtcDate(day,month,year);
   915  07EB  1283               	bcf	status, 5	;RP0=0, select bank0
   916  07EC  1303               	bcf	status, 6	;RP1=0, select bank0
   917  07ED  0824               	movf	(main@month),w
   918  07EE  00FC               	movwf	(??_main+0)+0
   919  07EF  087C               	movf	(??_main+0)+0,w
   920  07F0  00F6               	movwf	(?_LCD_DisplayRtcDate)
   921  07F1  0825               	movf	(main@year),w
   922  07F2  00FD               	movwf	(??_main+1)+0
   923  07F3  087D               	movf	(??_main+1)+0,w
   924  07F4  00F7               	movwf	0+(?_LCD_DisplayRtcDate)+01h
   925  07F5  0823               	movf	(main@day),w
   926  07F6  120A  118A  266E   	fcall	_LCD_DisplayRtcDate
              120A  118A         
   927  07FB  2FAB               	goto	l707
   928                           	line	57
   929                           	
   930  07FC                     l708:	
   931                           	line	41
   932  07FC  2FAB               	goto	l707
   933                           	
   934  07FD                     l709:	
   935                           	line	59
   936                           	
   937  07FD                     l710:	
   938                           	global	start
   939  07FD  120A  118A  2800   	ljmp	start
   940                           	opt stack 0
   941                           GLOBAL	__end_of_main
   942  0800                     	__end_of_main:
   943 ;; =============== function _main ends ============
   944                           
   945                           	signat	_main,88
   946                           	global	_DS1307_GetDate
   947                           psect	text521,local,class=CODE,delta=2
   948                           global __ptext521
   949  071C                     __ptext521:
   950                           
   951 ;; *************** function _DS1307_GetDate *****************
   952 ;; Defined at:
   953 ;;		line 218 in file "C:\Users\Xplore_labZ\Saved Games\Desktop\Sample_Programs_updated\Pic\Pro_Pic\RTC\RTC_LCD\ds1307.c"
   954 ;; Parameters:    Size  Location     Type
   955 ;;  d_ptr           1    wreg     PTR unsigned char 
   956 ;;		 -> main@day(1), 
   957 ;;  m_ptr           1    8[COMMON] PTR unsigned char 
   958 ;;		 -> main@month(1), 
   959 ;;  y_ptr           1    9[COMMON] PTR unsigned char 
   960 ;;		 -> main@year(1), 
   961 ;; Auto vars:     Size  Location     Type
   962 ;;  d_ptr           1   11[COMMON] PTR unsigned char 
   963 ;;		 -> main@day(1), 
   964 ;; Return value:  Size  Location     Type
   965 ;;		None               void
   966 ;; Registers used:
   967 ;;		wreg, fsr0l, fsr0h, status,2, status,0, pclath, cstack
   968 ;; Tracked objects:
   969 ;;		On entry : 0/0
   970 ;;		On exit  : 0/0
   971 ;;		Unchanged: 0/0
   972 ;; Data sizes:     COMMON   BANK0   BANK1   BANK3   BANK2
   973 ;;      Params:         2       0       0       0       0
   974 ;;      Locals:         1       0       0       0       0
   975 ;;      Temps:          1       0       0       0       0
   976 ;;      Totals:         4       0       0       0       0
   977 ;;Total ram usage:        4 bytes
   978 ;; Hardware stack levels used:    1
   979 ;; Hardware stack levels required when called:    4
   980 ;; This function calls:
   981 ;;		_I2C_Start
   982 ;;		_DS1307_Write
   983 ;;		_I2C_Stop
   984 ;;		_DS1307_Read
   985 ;;		_I2C_Ack
   986 ;;		_I2C_NoAck
   987 ;; This function is called by:
   988 ;;		_main
   989 ;; This function uses a non-reentrant model
   990 ;;
   991                           psect	text521
   992                           	file	"C:\Users\Xplore_labZ\Saved Games\Desktop\Sample_Programs_updated\Pic\Pro_Pic\RTC\
                                 RTC_LCD\ds1307.c"
   993                           	line	218
   994                           	global	__size_of_DS1307_GetDate
   995  0058                     	__size_of_DS1307_GetDate	equ	__end_of_DS1307_GetDate-_DS1307_GetDate
   996                           	
   997  071C                     _DS1307_GetDate:	
   998                           	opt	stack 3
   999                           ; Regs used in _DS1307_GetDate: [wreg-fsr0h+status,2+status,0+pclath+cstack]
  1000                           ;DS1307_GetDate@d_ptr stored from wreg
  1001  071C  00FB               	movwf	(DS1307_GetDate@d_ptr)
  1002                           	line	219
  1003                           	
  1004  071D                     l6179:	
  1005                           ;ds1307.c: 219: I2C_Start();
  1006  071D  120A  118A  2446   	fcall	_I2C_Start
              120A  118A         
  1007                           	line	221
  1008                           ;ds1307.c: 221: DS1307_Write(0xD0);
  1009  0722  30D0               	movlw	(0D0h)
  1010  0723  120A  118A  238C   	fcall	_DS1307_Write
              120A  118A         
  1011                           	line	222
  1012                           ;ds1307.c: 222: DS1307_Write(0x04);
  1013  0728  3004               	movlw	(04h)
  1014  0729  120A  118A  238C   	fcall	_DS1307_Write
              120A  118A         
  1015                           	line	224
  1016                           ;ds1307.c: 224: I2C_Stop();
  1017  072E  120A  118A  241E   	fcall	_I2C_Stop
              120A  118A         
  1018                           	line	227
  1019                           ;ds1307.c: 227: I2C_Start();
  1020  0733  120A  118A  2446   	fcall	_I2C_Start
              120A  118A         
  1021                           	line	228
  1022                           ;ds1307.c: 228: DS1307_Write(0xD1);
  1023  0738  30D1               	movlw	(0D1h)
  1024  0739  120A  118A  238C   	fcall	_DS1307_Write
              120A  118A         
  1025                           	line	231
  1026                           	
  1027  073E                     l6181:	
  1028                           ;ds1307.c: 231: *d_ptr = DS1307_Read(); I2C_Ack();
  1029  073E  120A  118A  2369   	fcall	_DS1307_Read
              120A  118A         
  1030  0743  00FA               	movwf	(??_DS1307_GetDate+0)+0
  1031  0744  087B               	movf	(DS1307_GetDate@d_ptr),w
  1032  0745  0084               	movwf	fsr0
  1033  0746  087A               	movf	(??_DS1307_GetDate+0)+0,w
  1034  0747  1383               	bcf	status, 7	;select IRP bank0
  1035  0748  0080               	movwf	indf
  1036                           	
  1037  0749                     l6183:	
  1038  0749  120A  118A  2374   	fcall	_I2C_Ack
              120A  118A         
  1039                           	line	232
  1040                           ;ds1307.c: 232: *m_ptr = DS1307_Read(); I2C_Ack();
  1041  074E  120A  118A  2369   	fcall	_DS1307_Read
              120A  118A         
  1042  0753  00FA               	movwf	(??_DS1307_GetDate+0)+0
  1043  0754  0878               	movf	(DS1307_GetDate@m_ptr),w
  1044  0755  0084               	movwf	fsr0
  1045  0756  087A               	movf	(??_DS1307_GetDate+0)+0,w
  1046  0757  1383               	bcf	status, 7	;select IRP bank0
  1047  0758  0080               	movwf	indf
  1048                           	
  1049  0759                     l6185:	
  1050  0759  120A  118A  2374   	fcall	_I2C_Ack
              120A  118A         
  1051                           	line	233
  1052                           	
  1053  075E                     l6187:	
  1054                           ;ds1307.c: 233: *y_ptr = DS1307_Read(); I2C_NoAck();
  1055  075E  120A  118A  2369   	fcall	_DS1307_Read
              120A  118A         
  1056  0763  00FA               	movwf	(??_DS1307_GetDate+0)+0
  1057  0764  0879               	movf	(DS1307_GetDate@y_ptr),w
  1058  0765  0084               	movwf	fsr0
  1059  0766  087A               	movf	(??_DS1307_GetDate+0)+0,w
  1060  0767  1383               	bcf	status, 7	;select IRP bank0
  1061  0768  0080               	movwf	indf
  1062  0769  120A  118A  2380   	fcall	_I2C_NoAck
              120A  118A         
  1063                           	line	235
  1064                           ;ds1307.c: 235: I2C_Stop();
  1065  076E  120A  118A  241E   	fcall	_I2C_Stop
              120A  118A         
  1066                           	line	236
  1067                           	
  1068  0773                     l2131:	
  1069  0773  0008               	return
  1070                           	opt stack 0
  1071                           GLOBAL	__end_of_DS1307_GetDate
  1072  0774                     	__end_of_DS1307_GetDate:
  1073 ;; =============== function _DS1307_GetDate ends ============
  1074                           
  1075                           	signat	_DS1307_GetDate,12408
  1076                           	global	_DS1307_GetTime
  1077                           psect	text522,local,class=CODE,delta=2
  1078                           global __ptext522
  1079  06C4                     __ptext522:
  1080                           
  1081 ;; *************** function _DS1307_GetTime *****************
  1082 ;; Defined at:
  1083 ;;		line 180 in file "C:\Users\Xplore_labZ\Saved Games\Desktop\Sample_Programs_updated\Pic\Pro_Pic\RTC\RTC_LCD\ds1307.c"
  1084 ;; Parameters:    Size  Location     Type
  1085 ;;  h_ptr           1    wreg     PTR unsigned char 
  1086 ;;		 -> main@hour(1), 
  1087 ;;  m_ptr           1    8[COMMON] PTR unsigned char 
  1088 ;;		 -> main@min(1), 
  1089 ;;  s_ptr           1    9[COMMON] PTR unsigned char 
  1090 ;;		 -> main@sec(1), 
  1091 ;; Auto vars:     Size  Location     Type
  1092 ;;  h_ptr           1   11[COMMON] PTR unsigned char 
  1093 ;;		 -> main@hour(1), 
  1094 ;; Return value:  Size  Location     Type
  1095 ;;		None               void
  1096 ;; Registers used:
  1097 ;;		wreg, fsr0l, fsr0h, status,2, status,0, pclath, cstack
  1098 ;; Tracked objects:
  1099 ;;		On entry : 0/0
  1100 ;;		On exit  : 0/0
  1101 ;;		Unchanged: 0/0
  1102 ;; Data sizes:     COMMON   BANK0   BANK1   BANK3   BANK2
  1103 ;;      Params:         2       0       0       0       0
  1104 ;;      Locals:         1       0       0       0       0
  1105 ;;      Temps:          1       0       0       0       0
  1106 ;;      Totals:         4       0       0       0       0
  1107 ;;Total ram usage:        4 bytes
  1108 ;; Hardware stack levels used:    1
  1109 ;; Hardware stack levels required when called:    4
  1110 ;; This function calls:
  1111 ;;		_I2C_Start
  1112 ;;		_DS1307_Write
  1113 ;;		_I2C_Stop
  1114 ;;		_DS1307_Read
  1115 ;;		_I2C_Ack
  1116 ;;		_I2C_NoAck
  1117 ;; This function is called by:
  1118 ;;		_main
  1119 ;; This function uses a non-reentrant model
  1120 ;;
  1121                           psect	text522
  1122                           	file	"C:\Users\Xplore_labZ\Saved Games\Desktop\Sample_Programs_updated\Pic\Pro_Pic\RTC\
                                 RTC_LCD\ds1307.c"
  1123                           	line	180
  1124                           	global	__size_of_DS1307_GetTime
  1125  0058                     	__size_of_DS1307_GetTime	equ	__end_of_DS1307_GetTime-_DS1307_GetTime
  1126                           	
  1127  06C4                     _DS1307_GetTime:	
  1128                           	opt	stack 3
  1129                           ; Regs used in _DS1307_GetTime: [wreg-fsr0h+status,2+status,0+pclath+cstack]
  1130                           ;DS1307_GetTime@h_ptr stored from wreg
  1131  06C4  00FB               	movwf	(DS1307_GetTime@h_ptr)
  1132                           	line	181
  1133                           	
  1134  06C5                     l6169:	
  1135                           ;ds1307.c: 181: I2C_Start();
  1136  06C5  120A  118A  2446   	fcall	_I2C_Start
              120A  118A         
  1137                           	line	183
  1138                           ;ds1307.c: 183: DS1307_Write(0xD0);
  1139  06CA  30D0               	movlw	(0D0h)
  1140  06CB  120A  118A  238C   	fcall	_DS1307_Write
              120A  118A         
  1141                           	line	184
  1142                           ;ds1307.c: 184: DS1307_Write(0x00);
  1143  06D0  3000               	movlw	(0)
  1144  06D1  120A  118A  238C   	fcall	_DS1307_Write
              120A  118A         
  1145                           	line	186
  1146                           ;ds1307.c: 186: I2C_Stop();
  1147  06D6  120A  118A  241E   	fcall	_I2C_Stop
              120A  118A         
  1148                           	line	188
  1149                           ;ds1307.c: 188: I2C_Start();
  1150  06DB  120A  118A  2446   	fcall	_I2C_Start
              120A  118A         
  1151                           	line	189
  1152                           ;ds1307.c: 189: DS1307_Write(0xD1);
  1153  06E0  30D1               	movlw	(0D1h)
  1154  06E1  120A  118A  238C   	fcall	_DS1307_Write
              120A  118A         
  1155                           	line	192
  1156                           	
  1157  06E6                     l6171:	
  1158                           ;ds1307.c: 192: *s_ptr = DS1307_Read(); I2C_Ack();
  1159  06E6  120A  118A  2369   	fcall	_DS1307_Read
              120A  118A         
  1160  06EB  00FA               	movwf	(??_DS1307_GetTime+0)+0
  1161  06EC  0879               	movf	(DS1307_GetTime@s_ptr),w
  1162  06ED  0084               	movwf	fsr0
  1163  06EE  087A               	movf	(??_DS1307_GetTime+0)+0,w
  1164  06EF  1383               	bcf	status, 7	;select IRP bank0
  1165  06F0  0080               	movwf	indf
  1166                           	
  1167  06F1                     l6173:	
  1168  06F1  120A  118A  2374   	fcall	_I2C_Ack
              120A  118A         
  1169                           	line	193
  1170                           ;ds1307.c: 193: *m_ptr = DS1307_Read(); I2C_Ack();
  1171  06F6  120A  118A  2369   	fcall	_DS1307_Read
              120A  118A         
  1172  06FB  00FA               	movwf	(??_DS1307_GetTime+0)+0
  1173  06FC  0878               	movf	(DS1307_GetTime@m_ptr),w
  1174  06FD  0084               	movwf	fsr0
  1175  06FE  087A               	movf	(??_DS1307_GetTime+0)+0,w
  1176  06FF  1383               	bcf	status, 7	;select IRP bank0
  1177  0700  0080               	movwf	indf
  1178                           	
  1179  0701                     l6175:	
  1180  0701  120A  118A  2374   	fcall	_I2C_Ack
              120A  118A         
  1181                           	line	194
  1182                           	
  1183  0706                     l6177:	
  1184                           ;ds1307.c: 194: *h_ptr = DS1307_Read(); I2C_NoAck();
  1185  0706  120A  118A  2369   	fcall	_DS1307_Read
              120A  118A         
  1186  070B  00FA               	movwf	(??_DS1307_GetTime+0)+0
  1187  070C  087B               	movf	(DS1307_GetTime@h_ptr),w
  1188  070D  0084               	movwf	fsr0
  1189  070E  087A               	movf	(??_DS1307_GetTime+0)+0,w
  1190  070F  1383               	bcf	status, 7	;select IRP bank0
  1191  0710  0080               	movwf	indf
  1192  0711  120A  118A  2380   	fcall	_I2C_NoAck
              120A  118A         
  1193                           	line	196
  1194                           ;ds1307.c: 196: I2C_Stop();
  1195  0716  120A  118A  241E   	fcall	_I2C_Stop
              120A  118A         
  1196                           	line	197
  1197                           	
  1198  071B                     l2128:	
  1199  071B  0008               	return
  1200                           	opt stack 0
  1201                           GLOBAL	__end_of_DS1307_GetTime
  1202  071C                     	__end_of_DS1307_GetTime:
  1203 ;; =============== function _DS1307_GetTime ends ============
  1204                           
  1205                           	signat	_DS1307_GetTime,12408
  1206                           	global	_DS1307_SetDate
  1207                           psect	text523,local,class=CODE,delta=2
  1208                           global __ptext523
  1209  04C2                     __ptext523:
  1210                           
  1211 ;; *************** function _DS1307_SetDate *****************
  1212 ;; Defined at:
  1213 ;;		line 149 in file "C:\Users\Xplore_labZ\Saved Games\Desktop\Sample_Programs_updated\Pic\Pro_Pic\RTC\RTC_LCD\ds1307.c"
  1214 ;; Parameters:    Size  Location     Type
  1215 ;;  dd              1    wreg     unsigned char 
  1216 ;;  mm              1    7[COMMON] unsigned char 
  1217 ;;  yy              1    8[COMMON] unsigned char 
  1218 ;; Auto vars:     Size  Location     Type
  1219 ;;  dd              1    9[COMMON] unsigned char 
  1220 ;; Return value:  Size  Location     Type
  1221 ;;		None               void
  1222 ;; Registers used:
  1223 ;;		wreg, status,2, status,0, pclath, cstack
  1224 ;; Tracked objects:
  1225 ;;		On entry : 0/0
  1226 ;;		On exit  : 0/0
  1227 ;;		Unchanged: 0/0
  1228 ;; Data sizes:     COMMON   BANK0   BANK1   BANK3   BANK2
  1229 ;;      Params:         2       0       0       0       0
  1230 ;;      Locals:         1       0       0       0       0
  1231 ;;      Temps:          0       0       0       0       0
  1232 ;;      Totals:         3       0       0       0       0
  1233 ;;Total ram usage:        3 bytes
  1234 ;; Hardware stack levels used:    1
  1235 ;; Hardware stack levels required when called:    4
  1236 ;; This function calls:
  1237 ;;		_I2C_Start
  1238 ;;		_DS1307_Write
  1239 ;;		_I2C_Stop
  1240 ;; This function is called by:
  1241 ;;		_main
  1242 ;; This function uses a non-reentrant model
  1243 ;;
  1244                           psect	text523
  1245                           	file	"C:\Users\Xplore_labZ\Saved Games\Desktop\Sample_Programs_updated\Pic\Pro_Pic\RTC\
                                 RTC_LCD\ds1307.c"
  1246                           	line	149
  1247                           	global	__size_of_DS1307_SetDate
  1248  002A                     	__size_of_DS1307_SetDate	equ	__end_of_DS1307_SetDate-_DS1307_SetDate
  1249                           	
  1250  04C2                     _DS1307_SetDate:	
  1251                           	opt	stack 3
  1252                           ; Regs used in _DS1307_SetDate: [wreg+status,2+status,0+pclath+cstack]
  1253                           ;DS1307_SetDate@dd stored from wreg
  1254  04C2  00F9               	movwf	(DS1307_SetDate@dd)
  1255                           	line	150
  1256                           	
  1257  04C3                     l6167:	
  1258                           ;ds1307.c: 150: I2C_Start();
  1259  04C3  120A  118A  2446   	fcall	_I2C_Start
              120A  118A         
  1260                           	line	152
  1261                           ;ds1307.c: 152: DS1307_Write(0xD0);
  1262  04C8  30D0               	movlw	(0D0h)
  1263  04C9  120A  118A  238C   	fcall	_DS1307_Write
              120A  118A         
  1264                           	line	153
  1265                           ;ds1307.c: 153: DS1307_Write(0x04);
  1266  04CE  3004               	movlw	(04h)
  1267  04CF  120A  118A  238C   	fcall	_DS1307_Write
              120A  118A         
  1268                           	line	155
  1269                           ;ds1307.c: 155: DS1307_Write(dd);
  1270  04D4  0879               	movf	(DS1307_SetDate@dd),w
  1271  04D5  120A  118A  238C   	fcall	_DS1307_Write
              120A  118A         
  1272                           	line	156
  1273                           ;ds1307.c: 156: DS1307_Write(mm);
  1274  04DA  0877               	movf	(DS1307_SetDate@mm),w
  1275  04DB  120A  118A  238C   	fcall	_DS1307_Write
              120A  118A         
  1276                           	line	157
  1277                           ;ds1307.c: 157: DS1307_Write(yy);
  1278  04E0  0878               	movf	(DS1307_SetDate@yy),w
  1279  04E1  120A  118A  238C   	fcall	_DS1307_Write
              120A  118A         
  1280                           	line	159
  1281                           ;ds1307.c: 159: I2C_Stop();
  1282  04E6  120A  118A  241E   	fcall	_I2C_Stop
              120A  118A         
  1283                           	line	160
  1284                           	
  1285  04EB                     l2125:	
  1286  04EB  0008               	return
  1287                           	opt stack 0
  1288                           GLOBAL	__end_of_DS1307_SetDate
  1289  04EC                     	__end_of_DS1307_SetDate:
  1290 ;; =============== function _DS1307_SetDate ends ============
  1291                           
  1292                           	signat	_DS1307_SetDate,12408
  1293                           	global	_DS1307_SetTime
  1294                           psect	text524,local,class=CODE,delta=2
  1295                           global __ptext524
  1296  0498                     __ptext524:
  1297                           
  1298 ;; *************** function _DS1307_SetTime *****************
  1299 ;; Defined at:
  1300 ;;		line 117 in file "C:\Users\Xplore_labZ\Saved Games\Desktop\Sample_Programs_updated\Pic\Pro_Pic\RTC\RTC_LCD\ds1307.c"
  1301 ;; Parameters:    Size  Location     Type
  1302 ;;  hh              1    wreg     unsigned char 
  1303 ;;  mm              1    7[COMMON] unsigned char 
  1304 ;;  ss              1    8[COMMON] unsigned char 
  1305 ;; Auto vars:     Size  Location     Type
  1306 ;;  hh              1    9[COMMON] unsigned char 
  1307 ;; Return value:  Size  Location     Type
  1308 ;;		None               void
  1309 ;; Registers used:
  1310 ;;		wreg, status,2, status,0, pclath, cstack
  1311 ;; Tracked objects:
  1312 ;;		On entry : 0/0
  1313 ;;		On exit  : 0/0
  1314 ;;		Unchanged: 0/0
  1315 ;; Data sizes:     COMMON   BANK0   BANK1   BANK3   BANK2
  1316 ;;      Params:         2       0       0       0       0
  1317 ;;      Locals:         1       0       0       0       0
  1318 ;;      Temps:          0       0       0       0       0
  1319 ;;      Totals:         3       0       0       0       0
  1320 ;;Total ram usage:        3 bytes
  1321 ;; Hardware stack levels used:    1
  1322 ;; Hardware stack levels required when called:    4
  1323 ;; This function calls:
  1324 ;;		_I2C_Start
  1325 ;;		_DS1307_Write
  1326 ;;		_I2C_Stop
  1327 ;; This function is called by:
  1328 ;;		_main
  1329 ;; This function uses a non-reentrant model
  1330 ;;
  1331                           psect	text524
  1332                           	file	"C:\Users\Xplore_labZ\Saved Games\Desktop\Sample_Programs_updated\Pic\Pro_Pic\RTC\
                                 RTC_LCD\ds1307.c"
  1333                           	line	117
  1334                           	global	__size_of_DS1307_SetTime
  1335  002A                     	__size_of_DS1307_SetTime	equ	__end_of_DS1307_SetTime-_DS1307_SetTime
  1336                           	
  1337  0498                     _DS1307_SetTime:	
  1338                           	opt	stack 3
  1339                           ; Regs used in _DS1307_SetTime: [wreg+status,2+status,0+pclath+cstack]
  1340                           ;DS1307_SetTime@hh stored from wreg
  1341  0498  00F9               	movwf	(DS1307_SetTime@hh)
  1342                           	line	118
  1343                           	
  1344  0499                     l6165:	
  1345                           ;ds1307.c: 118: I2C_Start();
  1346  0499  120A  118A  2446   	fcall	_I2C_Start
              120A  118A         
  1347                           	line	120
  1348                           ;ds1307.c: 120: DS1307_Write(0xD0);
  1349  049E  30D0               	movlw	(0D0h)
  1350  049F  120A  118A  238C   	fcall	_DS1307_Write
              120A  118A         
  1351                           	line	121
  1352                           ;ds1307.c: 121: DS1307_Write(0x00);
  1353  04A4  3000               	movlw	(0)
  1354  04A5  120A  118A  238C   	fcall	_DS1307_Write
              120A  118A         
  1355                           	line	123
  1356                           ;ds1307.c: 123: DS1307_Write(ss);
  1357  04AA  0878               	movf	(DS1307_SetTime@ss),w
  1358  04AB  120A  118A  238C   	fcall	_DS1307_Write
              120A  118A         
  1359                           	line	124
  1360                           ;ds1307.c: 124: DS1307_Write(mm);
  1361  04B0  0877               	movf	(DS1307_SetTime@mm),w
  1362  04B1  120A  118A  238C   	fcall	_DS1307_Write
              120A  118A         
  1363                           	line	125
  1364                           ;ds1307.c: 125: DS1307_Write(hh);
  1365  04B6  0879               	movf	(DS1307_SetTime@hh),w
  1366  04B7  120A  118A  238C   	fcall	_DS1307_Write
              120A  118A         
  1367                           	line	127
  1368                           ;ds1307.c: 127: I2C_Stop();
  1369  04BC  120A  118A  241E   	fcall	_I2C_Stop
              120A  118A         
  1370                           	line	128
  1371                           	
  1372  04C1                     l2122:	
  1373  04C1  0008               	return
  1374                           	opt stack 0
  1375                           GLOBAL	__end_of_DS1307_SetTime
  1376  04C2                     	__end_of_DS1307_SetTime:
  1377 ;; =============== function _DS1307_SetTime ends ============
  1378                           
  1379                           	signat	_DS1307_SetTime,12408
  1380                           	global	_DS1307_Init
  1381                           psect	text525,local,class=CODE,delta=2
  1382                           global __ptext525
  1383  03FC                     __ptext525:
  1384                           
  1385 ;; *************** function _DS1307_Init *****************
  1386 ;; Defined at:
  1387 ;;		line 43 in file "C:\Users\Xplore_labZ\Saved Games\Desktop\Sample_Programs_updated\Pic\Pro_Pic\RTC\RTC_LCD\ds1307.c"
  1388 ;; Parameters:    Size  Location     Type
  1389 ;;		None
  1390 ;; Auto vars:     Size  Location     Type
  1391 ;;		None
  1392 ;; Return value:  Size  Location     Type
  1393 ;;		None               void
  1394 ;; Registers used:
  1395 ;;		wreg, status,2, status,0, pclath, cstack
  1396 ;; Tracked objects:
  1397 ;;		On entry : 0/0
  1398 ;;		On exit  : 0/0
  1399 ;;		Unchanged: 0/0
  1400 ;; Data sizes:     COMMON   BANK0   BANK1   BANK3   BANK2
  1401 ;;      Params:         0       0       0       0       0
  1402 ;;      Locals:         0       0       0       0       0
  1403 ;;      Temps:          0       0       0       0       0
  1404 ;;      Totals:         0       0       0       0       0
  1405 ;;Total ram usage:        0 bytes
  1406 ;; Hardware stack levels used:    1
  1407 ;; Hardware stack levels required when called:    4
  1408 ;; This function calls:
  1409 ;;		_I2C_Init
  1410 ;;		_I2C_Start
  1411 ;;		_DS1307_Write
  1412 ;;		_I2C_Stop
  1413 ;; This function is called by:
  1414 ;;		_main
  1415 ;; This function uses a non-reentrant model
  1416 ;;
  1417                           psect	text525
  1418                           	file	"C:\Users\Xplore_labZ\Saved Games\Desktop\Sample_Programs_updated\Pic\Pro_Pic\RTC\
                                 RTC_LCD\ds1307.c"
  1419                           	line	43
  1420                           	global	__size_of_DS1307_Init
  1421  0022                     	__size_of_DS1307_Init	equ	__end_of_DS1307_Init-_DS1307_Init
  1422                           	
  1423  03FC                     _DS1307_Init:	
  1424                           	opt	stack 3
  1425                           ; Regs used in _DS1307_Init: [wreg+status,2+status,0+pclath+cstack]
  1426                           	line	44
  1427                           	
  1428  03FC                     l6153:	
  1429                           ;ds1307.c: 44: I2C_Init();
  1430  03FC  120A  118A  235D   	fcall	_I2C_Init
              120A  118A         
  1431                           	line	45
  1432                           	
  1433  0401                     l6155:	
  1434                           ;ds1307.c: 45: I2C_Start();
  1435  0401  120A  118A  2446   	fcall	_I2C_Start
              120A  118A         
  1436                           	line	47
  1437                           	
  1438  0406                     l6157:	
  1439                           ;ds1307.c: 47: DS1307_Write(0xD0);
  1440  0406  30D0               	movlw	(0D0h)
  1441  0407  120A  118A  238C   	fcall	_DS1307_Write
              120A  118A         
  1442                           	line	48
  1443                           	
  1444  040C                     l6159:	
  1445                           ;ds1307.c: 48: DS1307_Write(0x07);
  1446  040C  3007               	movlw	(07h)
  1447  040D  120A  118A  238C   	fcall	_DS1307_Write
              120A  118A         
  1448                           	line	50
  1449                           	
  1450  0412                     l6161:	
  1451                           ;ds1307.c: 50: DS1307_Write(0x00);
  1452  0412  3000               	movlw	(0)
  1453  0413  120A  118A  238C   	fcall	_DS1307_Write
              120A  118A         
  1454                           	line	52
  1455                           	
  1456  0418                     l6163:	
  1457                           ;ds1307.c: 52: I2C_Stop();
  1458  0418  120A  118A  241E   	fcall	_I2C_Stop
              120A  118A         
  1459                           	line	54
  1460                           	
  1461  041D                     l2113:	
  1462  041D  0008               	return
  1463                           	opt stack 0
  1464                           GLOBAL	__end_of_DS1307_Init
  1465  041E                     	__end_of_DS1307_Init:
  1466 ;; =============== function _DS1307_Init ends ============
  1467                           
  1468                           	signat	_DS1307_Init,88
  1469                           	global	_DS1307_Write
  1470                           psect	text526,local,class=CODE,delta=2
  1471                           global __ptext526
  1472  038C                     __ptext526:
  1473                           
  1474 ;; *************** function _DS1307_Write *****************
  1475 ;; Defined at:
  1476 ;;		line 76 in file "C:\Users\Xplore_labZ\Saved Games\Desktop\Sample_Programs_updated\Pic\Pro_Pic\RTC\RTC_LCD\ds1307.c"
  1477 ;; Parameters:    Size  Location     Type
  1478 ;;  dat             1    wreg     unsigned char 
  1479 ;; Auto vars:     Size  Location     Type
  1480 ;;  dat             1    6[COMMON] unsigned char 
  1481 ;; Return value:  Size  Location     Type
  1482 ;;		None               void
  1483 ;; Registers used:
  1484 ;;		wreg, status,2, status,0, pclath, cstack
  1485 ;; Tracked objects:
  1486 ;;		On entry : 0/0
  1487 ;;		On exit  : 0/0
  1488 ;;		Unchanged: 0/0
  1489 ;; Data sizes:     COMMON   BANK0   BANK1   BANK3   BANK2
  1490 ;;      Params:         0       0       0       0       0
  1491 ;;      Locals:         1       0       0       0       0
  1492 ;;      Temps:          0       0       0       0       0
  1493 ;;      Totals:         1       0       0       0       0
  1494 ;;Total ram usage:        1 bytes
  1495 ;; Hardware stack levels used:    1
  1496 ;; Hardware stack levels required when called:    3
  1497 ;; This function calls:
  1498 ;;		_I2C_Write
  1499 ;;		_I2C_Clock
  1500 ;; This function is called by:
  1501 ;;		_DS1307_Init
  1502 ;;		_DS1307_SetTime
  1503 ;;		_DS1307_SetDate
  1504 ;;		_DS1307_GetTime
  1505 ;;		_DS1307_GetDate
  1506 ;; This function uses a non-reentrant model
  1507 ;;
  1508                           psect	text526
  1509                           	file	"C:\Users\Xplore_labZ\Saved Games\Desktop\Sample_Programs_updated\Pic\Pro_Pic\RTC\
                                 RTC_LCD\ds1307.c"
  1510                           	line	76
  1511                           	global	__size_of_DS1307_Write
  1512  000D                     	__size_of_DS1307_Write	equ	__end_of_DS1307_Write-_DS1307_Write
  1513                           	
  1514  038C                     _DS1307_Write:	
  1515                           	opt	stack 3
  1516                           ; Regs used in _DS1307_Write: [wreg+status,2+status,0+pclath+cstack]
  1517                           ;DS1307_Write@dat stored from wreg
  1518  038C  00F6               	movwf	(DS1307_Write@dat)
  1519                           	line	77
  1520                           	
  1521  038D                     l6151:	
  1522                           ;ds1307.c: 77: I2C_Write(dat);
  1523  038D  0876               	movf	(DS1307_Write@dat),w
  1524  038E  120A  118A  2517   	fcall	_I2C_Write
              120A  118A         
  1525                           	line	78
  1526                           ;ds1307.c: 78: I2C_Clock();
  1527  0393  120A  118A  23C2   	fcall	_I2C_Clock
              120A  118A         
  1528                           	line	79
  1529                           	
  1530  0398                     l2116:	
  1531  0398  0008               	return
  1532                           	opt stack 0
  1533                           GLOBAL	__end_of_DS1307_Write
  1534  0399                     	__end_of_DS1307_Write:
  1535 ;; =============== function _DS1307_Write ends ============
  1536                           
  1537                           	signat	_DS1307_Write,4216
  1538                           	global	_LCD_DisplayRtcDate
  1539                           psect	text527,local,class=CODE,delta=2
  1540                           global __ptext527
  1541  066E                     __ptext527:
  1542                           
  1543 ;; *************** function _LCD_DisplayRtcDate *****************
  1544 ;; Defined at:
  1545 ;;		line 445 in file "C:\Users\Xplore_labZ\Saved Games\Desktop\Sample_Programs_updated\Pic\Pro_Pic\RTC\RTC_LCD\lcd_4_bit
       .c"
  1546 ;; Parameters:    Size  Location     Type
  1547 ;;  day             1    wreg     unsigned char 
  1548 ;;  month           1    6[COMMON] unsigned char 
  1549 ;;  year            1    7[COMMON] unsigned char 
  1550 ;; Auto vars:     Size  Location     Type
  1551 ;;  day             1    9[COMMON] unsigned char 
  1552 ;; Return value:  Size  Location     Type
  1553 ;;		None               void
  1554 ;; Registers used:
  1555 ;;		wreg, status,2, status,0, pclath, cstack
  1556 ;; Tracked objects:
  1557 ;;		On entry : 0/0
  1558 ;;		On exit  : 0/0
  1559 ;;		Unchanged: 0/0
  1560 ;; Data sizes:     COMMON   BANK0   BANK1   BANK3   BANK2
  1561 ;;      Params:         2       0       0       0       0
  1562 ;;      Locals:         1       0       0       0       0
  1563 ;;      Temps:          1       0       0       0       0
  1564 ;;      Totals:         4       0       0       0       0
  1565 ;;Total ram usage:        4 bytes
  1566 ;; Hardware stack levels used:    1
  1567 ;; Hardware stack levels required when called:    3
  1568 ;; This function calls:
  1569 ;;		_LCD_DataWrite
  1570 ;; This function is called by:
  1571 ;;		_main
  1572 ;; This function uses a non-reentrant model
  1573 ;;
  1574                           psect	text527
  1575                           	file	"C:\Users\Xplore_labZ\Saved Games\Desktop\Sample_Programs_updated\Pic\Pro_Pic\RTC\
                                 RTC_LCD\lcd_4_bit.c"
  1576                           	line	445
  1577                           	global	__size_of_LCD_DisplayRtcDate
  1578  0056                     	__size_of_LCD_DisplayRtcDate	equ	__end_of_LCD_DisplayRtcDate-_LCD_DisplayRtcDate
  1579                           	
  1580  066E                     _LCD_DisplayRtcDate:	
  1581                           	opt	stack 4
  1582                           ; Regs used in _LCD_DisplayRtcDate: [wreg+status,2+status,0+pclath+cstack]
  1583                           ;LCD_DisplayRtcDate@day stored from wreg
  1584  066E  00F9               	movwf	(LCD_DisplayRtcDate@day)
  1585                           	line	446
  1586                           	
  1587  066F                     l6149:	
  1588                           ;lcd_4_bit.c: 446: LCD_DataWrite(((day>>4) & 0x0f) + 0x30);
  1589  066F  0879               	movf	(LCD_DisplayRtcDate@day),w
  1590  0670  00F8               	movwf	(??_LCD_DisplayRtcDate+0)+0
  1591  0671  3004               	movlw	04h
  1592  0672                     u2735:
  1593  0672  1003               	clrc
  1594  0673  0CF8               	rrf	(??_LCD_DisplayRtcDate+0)+0,f
  1595  0674  3EFF               	addlw	-1
  1596  0675  1D03               	skipz
  1597  0676  2E72               	goto	u2735
  1598  0677  0878               	movf	0+(??_LCD_DisplayRtcDate+0)+0,w
  1599  0678  390F               	andlw	0Fh
  1600  0679  3E30               	addlw	030h
  1601  067A  120A  118A  25D3   	fcall	_LCD_DataWrite
              120A  118A         
  1602                           	line	447
  1603                           ;lcd_4_bit.c: 447: LCD_DataWrite((day & 0x0f) + 0x30);
  1604  067F  0879               	movf	(LCD_DisplayRtcDate@day),w
  1605  0680  390F               	andlw	0Fh
  1606  0681  3E30               	addlw	030h
  1607  0682  120A  118A  25D3   	fcall	_LCD_DataWrite
              120A  118A         
  1608                           	line	448
  1609                           ;lcd_4_bit.c: 448: LCD_DataWrite('/');
  1610  0687  302F               	movlw	(02Fh)
  1611  0688  120A  118A  25D3   	fcall	_LCD_DataWrite
              120A  118A         
  1612                           	line	450
  1613                           ;lcd_4_bit.c: 450: LCD_DataWrite(((month>>4) & 0x0f) + 0x30);
  1614  068D  0876               	movf	(LCD_DisplayRtcDate@month),w
  1615  068E  00F8               	movwf	(??_LCD_DisplayRtcDate+0)+0
  1616  068F  3004               	movlw	04h
  1617  0690                     u2745:
  1618  0690  1003               	clrc
  1619  0691  0CF8               	rrf	(??_LCD_DisplayRtcDate+0)+0,f
  1620  0692  3EFF               	addlw	-1
  1621  0693  1D03               	skipz
  1622  0694  2E90               	goto	u2745
  1623  0695  0878               	movf	0+(??_LCD_DisplayRtcDate+0)+0,w
  1624  0696  390F               	andlw	0Fh
  1625  0697  3E30               	addlw	030h
  1626  0698  120A  118A  25D3   	fcall	_LCD_DataWrite
              120A  118A         
  1627                           	line	451
  1628                           ;lcd_4_bit.c: 451: LCD_DataWrite((month & 0x0f) + 0x30);
  1629  069D  0876               	movf	(LCD_DisplayRtcDate@month),w
  1630  069E  390F               	andlw	0Fh
  1631  069F  3E30               	addlw	030h
  1632  06A0  120A  118A  25D3   	fcall	_LCD_DataWrite
              120A  118A         
  1633                           	line	452
  1634                           ;lcd_4_bit.c: 452: LCD_DataWrite('/');
  1635  06A5  302F               	movlw	(02Fh)
  1636  06A6  120A  118A  25D3   	fcall	_LCD_DataWrite
              120A  118A         
  1637                           	line	454
  1638                           ;lcd_4_bit.c: 454: LCD_DataWrite(((year>>4) & 0x0f) + 0x30);
  1639  06AB  0877               	movf	(LCD_DisplayRtcDate@year),w
  1640  06AC  00F8               	movwf	(??_LCD_DisplayRtcDate+0)+0
  1641  06AD  3004               	movlw	04h
  1642  06AE                     u2755:
  1643  06AE  1003               	clrc
  1644  06AF  0CF8               	rrf	(??_LCD_DisplayRtcDate+0)+0,f
  1645  06B0  3EFF               	addlw	-1
  1646  06B1  1D03               	skipz
  1647  06B2  2EAE               	goto	u2755
  1648  06B3  0878               	movf	0+(??_LCD_DisplayRtcDate+0)+0,w
  1649  06B4  390F               	andlw	0Fh
  1650  06B5  3E30               	addlw	030h
  1651  06B6  120A  118A  25D3   	fcall	_LCD_DataWrite
              120A  118A         
  1652                           	line	455
  1653                           ;lcd_4_bit.c: 455: LCD_DataWrite((year & 0x0f) + 0x30);
  1654  06BB  0877               	movf	(LCD_DisplayRtcDate@year),w
  1655  06BC  390F               	andlw	0Fh
  1656  06BD  3E30               	addlw	030h
  1657  06BE  120A  118A  25D3   	fcall	_LCD_DataWrite
              120A  118A         
  1658                           	line	457
  1659                           	
  1660  06C3                     l3582:	
  1661  06C3  0008               	return
  1662                           	opt stack 0
  1663                           GLOBAL	__end_of_LCD_DisplayRtcDate
  1664  06C4                     	__end_of_LCD_DisplayRtcDate:
  1665 ;; =============== function _LCD_DisplayRtcDate ends ============
  1666                           
  1667                           	signat	_LCD_DisplayRtcDate,12408
  1668                           	global	_LCD_DisplayRtcTime
  1669                           psect	text528,local,class=CODE,delta=2
  1670                           global __ptext528
  1671  0618                     __ptext528:
  1672                           
  1673 ;; *************** function _LCD_DisplayRtcTime *****************
  1674 ;; Defined at:
  1675 ;;		line 403 in file "C:\Users\Xplore_labZ\Saved Games\Desktop\Sample_Programs_updated\Pic\Pro_Pic\RTC\RTC_LCD\lcd_4_bit
       .c"
  1676 ;; Parameters:    Size  Location     Type
  1677 ;;  hour            1    wreg     unsigned char 
  1678 ;;  min             1    6[COMMON] unsigned char 
  1679 ;;  sec             1    7[COMMON] unsigned char 
  1680 ;; Auto vars:     Size  Location     Type
  1681 ;;  hour            1    9[COMMON] unsigned char 
  1682 ;; Return value:  Size  Location     Type
  1683 ;;		None               void
  1684 ;; Registers used:
  1685 ;;		wreg, status,2, status,0, pclath, cstack
  1686 ;; Tracked objects:
  1687 ;;		On entry : 0/0
  1688 ;;		On exit  : 0/0
  1689 ;;		Unchanged: 0/0
  1690 ;; Data sizes:     COMMON   BANK0   BANK1   BANK3   BANK2
  1691 ;;      Params:         2       0       0       0       0
  1692 ;;      Locals:         1       0       0       0       0
  1693 ;;      Temps:          1       0       0       0       0
  1694 ;;      Totals:         4       0       0       0       0
  1695 ;;Total ram usage:        4 bytes
  1696 ;; Hardware stack levels used:    1
  1697 ;; Hardware stack levels required when called:    3
  1698 ;; This function calls:
  1699 ;;		_LCD_DataWrite
  1700 ;; This function is called by:
  1701 ;;		_main
  1702 ;; This function uses a non-reentrant model
  1703 ;;
  1704                           psect	text528
  1705                           	file	"C:\Users\Xplore_labZ\Saved Games\Desktop\Sample_Programs_updated\Pic\Pro_Pic\RTC\
                                 RTC_LCD\lcd_4_bit.c"
  1706                           	line	403
  1707                           	global	__size_of_LCD_DisplayRtcTime
  1708  0056                     	__size_of_LCD_DisplayRtcTime	equ	__end_of_LCD_DisplayRtcTime-_LCD_DisplayRtcTime
  1709                           	
  1710  0618                     _LCD_DisplayRtcTime:	
  1711                           	opt	stack 4
  1712                           ; Regs used in _LCD_DisplayRtcTime: [wreg+status,2+status,0+pclath+cstack]
  1713                           ;LCD_DisplayRtcTime@hour stored from wreg
  1714  0618  00F9               	movwf	(LCD_DisplayRtcTime@hour)
  1715                           	line	404
  1716                           	
  1717  0619                     l6147:	
  1718                           ;lcd_4_bit.c: 404: LCD_DataWrite(((hour>>4) & 0x0f) + 0x30);
  1719  0619  0879               	movf	(LCD_DisplayRtcTime@hour),w
  1720  061A  00F8               	movwf	(??_LCD_DisplayRtcTime+0)+0
  1721  061B  3004               	movlw	04h
  1722  061C                     u2705:
  1723  061C  1003               	clrc
  1724  061D  0CF8               	rrf	(??_LCD_DisplayRtcTime+0)+0,f
  1725  061E  3EFF               	addlw	-1
  1726  061F  1D03               	skipz
  1727  0620  2E1C               	goto	u2705
  1728  0621  0878               	movf	0+(??_LCD_DisplayRtcTime+0)+0,w
  1729  0622  390F               	andlw	0Fh
  1730  0623  3E30               	addlw	030h
  1731  0624  120A  118A  25D3   	fcall	_LCD_DataWrite
              120A  118A         
  1732                           	line	405
  1733                           ;lcd_4_bit.c: 405: LCD_DataWrite((hour & 0x0f) + 0x30);
  1734  0629  0879               	movf	(LCD_DisplayRtcTime@hour),w
  1735  062A  390F               	andlw	0Fh
  1736  062B  3E30               	addlw	030h
  1737  062C  120A  118A  25D3   	fcall	_LCD_DataWrite
              120A  118A         
  1738                           	line	406
  1739                           ;lcd_4_bit.c: 406: LCD_DataWrite(':');
  1740  0631  303A               	movlw	(03Ah)
  1741  0632  120A  118A  25D3   	fcall	_LCD_DataWrite
              120A  118A         
  1742                           	line	408
  1743                           ;lcd_4_bit.c: 408: LCD_DataWrite(((min>>4) & 0x0f) + 0x30);
  1744  0637  0876               	movf	(LCD_DisplayRtcTime@min),w
  1745  0638  00F8               	movwf	(??_LCD_DisplayRtcTime+0)+0
  1746  0639  3004               	movlw	04h
  1747  063A                     u2715:
  1748  063A  1003               	clrc
  1749  063B  0CF8               	rrf	(??_LCD_DisplayRtcTime+0)+0,f
  1750  063C  3EFF               	addlw	-1
  1751  063D  1D03               	skipz
  1752  063E  2E3A               	goto	u2715
  1753  063F  0878               	movf	0+(??_LCD_DisplayRtcTime+0)+0,w
  1754  0640  390F               	andlw	0Fh
  1755  0641  3E30               	addlw	030h
  1756  0642  120A  118A  25D3   	fcall	_LCD_DataWrite
              120A  118A         
  1757                           	line	409
  1758                           ;lcd_4_bit.c: 409: LCD_DataWrite((min & 0x0f) + 0x30);
  1759  0647  0876               	movf	(LCD_DisplayRtcTime@min),w
  1760  0648  390F               	andlw	0Fh
  1761  0649  3E30               	addlw	030h
  1762  064A  120A  118A  25D3   	fcall	_LCD_DataWrite
              120A  118A         
  1763                           	line	410
  1764                           ;lcd_4_bit.c: 410: LCD_DataWrite(':');
  1765  064F  303A               	movlw	(03Ah)
  1766  0650  120A  118A  25D3   	fcall	_LCD_DataWrite
              120A  118A         
  1767                           	line	412
  1768                           ;lcd_4_bit.c: 412: LCD_DataWrite(((sec>>4) & 0x0f) + 0x30);
  1769  0655  0877               	movf	(LCD_DisplayRtcTime@sec),w
  1770  0656  00F8               	movwf	(??_LCD_DisplayRtcTime+0)+0
  1771  0657  3004               	movlw	04h
  1772  0658                     u2725:
  1773  0658  1003               	clrc
  1774  0659  0CF8               	rrf	(??_LCD_DisplayRtcTime+0)+0,f
  1775  065A  3EFF               	addlw	-1
  1776  065B  1D03               	skipz
  1777  065C  2E58               	goto	u2725
  1778  065D  0878               	movf	0+(??_LCD_DisplayRtcTime+0)+0,w
  1779  065E  390F               	andlw	0Fh
  1780  065F  3E30               	addlw	030h
  1781  0660  120A  118A  25D3   	fcall	_LCD_DataWrite
              120A  118A         
  1782                           	line	413
  1783                           ;lcd_4_bit.c: 413: LCD_DataWrite((sec & 0x0f) + 0x30);
  1784  0665  0877               	movf	(LCD_DisplayRtcTime@sec),w
  1785  0666  390F               	andlw	0Fh
  1786  0667  3E30               	addlw	030h
  1787  0668  120A  118A  25D3   	fcall	_LCD_DataWrite
              120A  118A         
  1788                           	line	415
  1789                           	
  1790  066D                     l3579:	
  1791  066D  0008               	return
  1792                           	opt stack 0
  1793                           GLOBAL	__end_of_LCD_DisplayRtcTime
  1794  066E                     	__end_of_LCD_DisplayRtcTime:
  1795 ;; =============== function _LCD_DisplayRtcTime ends ============
  1796                           
  1797                           	signat	_LCD_DisplayRtcTime,12408
  1798                           	global	_LCD_GoToXY
  1799                           psect	text529,local,class=CODE,delta=2
  1800                           global __ptext529
  1801  046F                     __ptext529:
  1802                           
  1803 ;; *************** function _LCD_GoToXY *****************
  1804 ;; Defined at:
  1805 ;;		line 154 in file "C:\Users\Xplore_labZ\Saved Games\Desktop\Sample_Programs_updated\Pic\Pro_Pic\RTC\RTC_LCD\lcd_4_bit
       .c"
  1806 ;; Parameters:    Size  Location     Type
  1807 ;;  row             1    wreg     unsigned char 
  1808 ;;  col             1    6[COMMON] unsigned char 
  1809 ;; Auto vars:     Size  Location     Type
  1810 ;;  row             1    9[COMMON] unsigned char 
  1811 ;;  pos             1   10[COMMON] unsigned char 
  1812 ;; Return value:  Size  Location     Type
  1813 ;;		None               void
  1814 ;; Registers used:
  1815 ;;		wreg, status,2, status,0, pclath, cstack
  1816 ;; Tracked objects:
  1817 ;;		On entry : 0/0
  1818 ;;		On exit  : 0/0
  1819 ;;		Unchanged: 0/0
  1820 ;; Data sizes:     COMMON   BANK0   BANK1   BANK3   BANK2
  1821 ;;      Params:         1       0       0       0       0
  1822 ;;      Locals:         2       0       0       0       0
  1823 ;;      Temps:          2       0       0       0       0
  1824 ;;      Totals:         5       0       0       0       0
  1825 ;;Total ram usage:        5 bytes
  1826 ;; Hardware stack levels used:    1
  1827 ;; Hardware stack levels required when called:    3
  1828 ;; This function calls:
  1829 ;;		_LCD_CmdWrite
  1830 ;; This function is called by:
  1831 ;;		_main
  1832 ;; This function uses a non-reentrant model
  1833 ;;
  1834                           psect	text529
  1835                           	file	"C:\Users\Xplore_labZ\Saved Games\Desktop\Sample_Programs_updated\Pic\Pro_Pic\RTC\
                                 RTC_LCD\lcd_4_bit.c"
  1836                           	line	154
  1837                           	global	__size_of_LCD_GoToXY
  1838  0029                     	__size_of_LCD_GoToXY	equ	__end_of_LCD_GoToXY-_LCD_GoToXY
  1839                           	
  1840  046F                     _LCD_GoToXY:	
  1841                           	opt	stack 4
  1842                           ; Regs used in _LCD_GoToXY: [wreg+status,2+status,0+pclath+cstack]
  1843                           ;LCD_GoToXY@row stored from wreg
  1844                           	line	157
  1845  046F  00F9               	movwf	(LCD_GoToXY@row)
  1846                           	
  1847  0470                     l6137:	
  1848                           ;lcd_4_bit.c: 155: char pos;
  1849                           ;lcd_4_bit.c: 157: if(row<2)
  1850  0470  3002               	movlw	(02h)
  1851  0471  0279               	subwf	(LCD_GoToXY@row),w
  1852  0472  1803               	skipnc
  1853  0473  2C75               	goto	u2671
  1854  0474  2C76               	goto	u2670
  1855  0475                     u2671:
  1856  0475  2C97               	goto	l3548
  1857  0476                     u2670:
  1858                           	line	159
  1859                           	
  1860  0476                     l6139:	
  1861                           ;lcd_4_bit.c: 158: {
  1862                           ;lcd_4_bit.c: 159: pos= 0x80 | (row << 6);
  1863  0476  0879               	movf	(LCD_GoToXY@row),w
  1864  0477  00F7               	movwf	(??_LCD_GoToXY+0)+0
  1865  0478  3005               	movlw	(06h)-1
  1866  0479                     u2685:
  1867  0479  1003               	clrc
  1868  047A  0DF7               	rlf	(??_LCD_GoToXY+0)+0,f
  1869  047B  3EFF               	addlw	-1
  1870  047C  1D03               	skipz
  1871  047D  2C79               	goto	u2685
  1872  047E  1003               	clrc
  1873  047F  0D77               	rlf	(??_LCD_GoToXY+0)+0,w
  1874  0480  3880               	iorlw	080h
  1875  0481  00F8               	movwf	(??_LCD_GoToXY+1)+0
  1876  0482  0878               	movf	(??_LCD_GoToXY+1)+0,w
  1877  0483  00FA               	movwf	(LCD_GoToXY@pos)
  1878                           	line	162
  1879                           	
  1880  0484                     l6141:	
  1881                           ;lcd_4_bit.c: 162: if(col<16)
  1882  0484  3010               	movlw	(010h)
  1883  0485  0276               	subwf	(LCD_GoToXY@col),w
  1884  0486  1803               	skipnc
  1885  0487  2C89               	goto	u2691
  1886  0488  2C8A               	goto	u2690
  1887  0489                     u2691:
  1888  0489  2C90               	goto	l6145
  1889  048A                     u2690:
  1890                           	line	163
  1891                           	
  1892  048A                     l6143:	
  1893                           ;lcd_4_bit.c: 163: pos= pos+col;
  1894  048A  0876               	movf	(LCD_GoToXY@col),w
  1895  048B  077A               	addwf	(LCD_GoToXY@pos),w
  1896  048C  00F7               	movwf	(??_LCD_GoToXY+0)+0
  1897  048D  0877               	movf	(??_LCD_GoToXY+0)+0,w
  1898  048E  00FA               	movwf	(LCD_GoToXY@pos)
  1899  048F  2C90               	goto	l6145
  1900                           	
  1901  0490                     l3547:	
  1902                           	line	166
  1903                           	
  1904  0490                     l6145:	
  1905                           ;lcd_4_bit.c: 166: LCD_CmdWrite(pos);
  1906  0490  087A               	movf	(LCD_GoToXY@pos),w
  1907  0491  120A  118A  258E   	fcall	_LCD_CmdWrite
              120A  118A         
  1908  0496  2C97               	goto	l3548
  1909                           	line	167
  1910                           	
  1911  0497                     l3546:	
  1912                           	line	168
  1913                           	
  1914  0497                     l3548:	
  1915  0497  0008               	return
  1916                           	opt stack 0
  1917                           GLOBAL	__end_of_LCD_GoToXY
  1918  0498                     	__end_of_LCD_GoToXY:
  1919 ;; =============== function _LCD_GoToXY ends ============
  1920                           
  1921                           	signat	_LCD_GoToXY,8312
  1922                           	global	_LCD_GoToLineTwo
  1923                           psect	text530,local,class=CODE,delta=2
  1924                           global __ptext530
  1925  0362                     __ptext530:
  1926                           
  1927 ;; *************** function _LCD_GoToLineTwo *****************
  1928 ;; Defined at:
  1929 ;;		line 133 in file "C:\Users\Xplore_labZ\Saved Games\Desktop\Sample_Programs_updated\Pic\Pro_Pic\RTC\RTC_LCD\lcd_4_bit
       .c"
  1930 ;; Parameters:    Size  Location     Type
  1931 ;;		None
  1932 ;; Auto vars:     Size  Location     Type
  1933 ;;		None
  1934 ;; Return value:  Size  Location     Type
  1935 ;;		None               void
  1936 ;; Registers used:
  1937 ;;		wreg, status,2, status,0, pclath, cstack
  1938 ;; Tracked objects:
  1939 ;;		On entry : 0/0
  1940 ;;		On exit  : 0/0
  1941 ;;		Unchanged: 0/0
  1942 ;; Data sizes:     COMMON   BANK0   BANK1   BANK3   BANK2
  1943 ;;      Params:         0       0       0       0       0
  1944 ;;      Locals:         0       0       0       0       0
  1945 ;;      Temps:          0       0       0       0       0
  1946 ;;      Totals:         0       0       0       0       0
  1947 ;;Total ram usage:        0 bytes
  1948 ;; Hardware stack levels used:    1
  1949 ;; Hardware stack levels required when called:    3
  1950 ;; This function calls:
  1951 ;;		_LCD_CmdWrite
  1952 ;; This function is called by:
  1953 ;;		_main
  1954 ;; This function uses a non-reentrant model
  1955 ;;
  1956                           psect	text530
  1957                           	file	"C:\Users\Xplore_labZ\Saved Games\Desktop\Sample_Programs_updated\Pic\Pro_Pic\RTC\
                                 RTC_LCD\lcd_4_bit.c"
  1958                           	line	133
  1959                           	global	__size_of_LCD_GoToLineTwo
  1960  0007                     	__size_of_LCD_GoToLineTwo	equ	__end_of_LCD_GoToLineTwo-_LCD_GoToLineTwo
  1961                           	
  1962  0362                     _LCD_GoToLineTwo:	
  1963                           	opt	stack 4
  1964                           ; Regs used in _LCD_GoToLineTwo: [wreg+status,2+status,0+pclath+cstack]
  1965                           	line	134
  1966                           	
  1967  0362                     l6135:	
  1968                           ;lcd_4_bit.c: 134: LCD_CmdWrite(0xc0);
  1969  0362  30C0               	movlw	(0C0h)
  1970  0363  120A  118A  258E   	fcall	_LCD_CmdWrite
              120A  118A         
  1971                           	line	135
  1972                           	
  1973  0368                     l3543:	
  1974  0368  0008               	return
  1975                           	opt stack 0
  1976                           GLOBAL	__end_of_LCD_GoToLineTwo
  1977  0369                     	__end_of_LCD_GoToLineTwo:
  1978 ;; =============== function _LCD_GoToLineTwo ends ============
  1979                           
  1980                           	signat	_LCD_GoToLineTwo,88
  1981                           	global	_LCD_DisplayString
  1982                           psect	text531,local,class=CODE,delta=2
  1983                           global __ptext531
  1984  03DB                     __ptext531:
  1985                           
  1986 ;; *************** function _LCD_DisplayString *****************
  1987 ;; Defined at:
  1988 ;;		line 285 in file "C:\Users\Xplore_labZ\Saved Games\Desktop\Sample_Programs_updated\Pic\Pro_Pic\RTC\RTC_LCD\lcd_4_bit
       .c"
  1989 ;; Parameters:    Size  Location     Type
  1990 ;;  string_ptr      1    wreg     PTR unsigned char 
  1991 ;;		 -> STR_2(7), STR_1(7), 
  1992 ;; Auto vars:     Size  Location     Type
  1993 ;;  string_ptr      1    7[COMMON] PTR unsigned char 
  1994 ;;		 -> STR_2(7), STR_1(7), 
  1995 ;; Return value:  Size  Location     Type
  1996 ;;		None               void
  1997 ;; Registers used:
  1998 ;;		wreg, fsr0l, fsr0h, status,2, status,0, pclath, cstack
  1999 ;; Tracked objects:
  2000 ;;		On entry : 0/0
  2001 ;;		On exit  : 0/0
  2002 ;;		Unchanged: 0/0
  2003 ;; Data sizes:     COMMON   BANK0   BANK1   BANK3   BANK2
  2004 ;;      Params:         0       0       0       0       0
  2005 ;;      Locals:         1       0       0       0       0
  2006 ;;      Temps:          1       0       0       0       0
  2007 ;;      Totals:         2       0       0       0       0
  2008 ;;Total ram usage:        2 bytes
  2009 ;; Hardware stack levels used:    1
  2010 ;; Hardware stack levels required when called:    3
  2011 ;; This function calls:
  2012 ;;		_LCD_DataWrite
  2013 ;; This function is called by:
  2014 ;;		_main
  2015 ;; This function uses a non-reentrant model
  2016 ;;
  2017                           psect	text531
  2018                           	file	"C:\Users\Xplore_labZ\Saved Games\Desktop\Sample_Programs_updated\Pic\Pro_Pic\RTC\
                                 RTC_LCD\lcd_4_bit.c"
  2019                           	line	285
  2020                           	global	__size_of_LCD_DisplayString
  2021  0021                     	__size_of_LCD_DisplayString	equ	__end_of_LCD_DisplayString-_LCD_DisplayString
  2022                           	
  2023  03DB                     _LCD_DisplayString:	
  2024                           	opt	stack 4
  2025                           ; Regs used in _LCD_DisplayString: [wreg-fsr0h+status,2+status,0+pclath+cstack]
  2026                           ;LCD_DisplayString@string_ptr stored from wreg
  2027  03DB  00F7               	movwf	(LCD_DisplayString@string_ptr)
  2028                           	line	286
  2029                           	
  2030  03DC                     l6127:	
  2031                           ;lcd_4_bit.c: 286: while(*string_ptr)
  2032  03DC  2BEE               	goto	l6133
  2033                           	
  2034  03DD                     l3558:	
  2035                           	line	287
  2036                           	
  2037  03DD                     l6129:	
  2038                           ;lcd_4_bit.c: 287: LCD_DataWrite(*string_ptr++);
  2039  03DD  0877               	movf	(LCD_DisplayString@string_ptr),w
  2040  03DE  0084               	movwf	fsr0
  2041  03DF  120A  118A  2003   	fcall	stringdir
              120A  118A         
  2042  03E4  120A  118A  25D3   	fcall	_LCD_DataWrite
              120A  118A         
  2043                           	
  2044  03E9                     l6131:	
  2045  03E9  3001               	movlw	(01h)
  2046  03EA  00F6               	movwf	(??_LCD_DisplayString+0)+0
  2047  03EB  0876               	movf	(??_LCD_DisplayString+0)+0,w
  2048  03EC  07F7               	addwf	(LCD_DisplayString@string_ptr),f
  2049  03ED  2BEE               	goto	l6133
  2050                           	
  2051  03EE                     l3557:	
  2052                           	line	286
  2053                           	
  2054  03EE                     l6133:	
  2055  03EE  0877               	movf	(LCD_DisplayString@string_ptr),w
  2056  03EF  0084               	movwf	fsr0
  2057  03F0  120A  118A  2003   	fcall	stringdir
              120A  118A         
  2058  03F5  3800               	iorlw	0
  2059  03F6  1D03               	skipz
  2060  03F7  2BF9               	goto	u2661
  2061  03F8  2BFA               	goto	u2660
  2062  03F9                     u2661:
  2063  03F9  2BDD               	goto	l6129
  2064  03FA                     u2660:
  2065  03FA  2BFB               	goto	l3560
  2066                           	
  2067  03FB                     l3559:	
  2068                           	line	288
  2069                           	
  2070  03FB                     l3560:	
  2071  03FB  0008               	return
  2072                           	opt stack 0
  2073                           GLOBAL	__end_of_LCD_DisplayString
  2074  03FC                     	__end_of_LCD_DisplayString:
  2075 ;; =============== function _LCD_DisplayString ends ============
  2076                           
  2077                           	signat	_LCD_DisplayString,4216
  2078                           	global	_LCD_Init
  2079                           psect	text532,local,class=CODE,delta=2
  2080                           global __ptext532
  2081  04EC                     __ptext532:
  2082                           
  2083 ;; *************** function _LCD_Init *****************
  2084 ;; Defined at:
  2085 ;;		line 74 in file "C:\Users\Xplore_labZ\Saved Games\Desktop\Sample_Programs_updated\Pic\Pro_Pic\RTC\RTC_LCD\lcd_4_bit.
       c"
  2086 ;; Parameters:    Size  Location     Type
  2087 ;;		None
  2088 ;; Auto vars:     Size  Location     Type
  2089 ;;		None
  2090 ;; Return value:  Size  Location     Type
  2091 ;;		None               void
  2092 ;; Registers used:
  2093 ;;		wreg, status,2, status,0, pclath, cstack
  2094 ;; Tracked objects:
  2095 ;;		On entry : 0/0
  2096 ;;		On exit  : 0/0
  2097 ;;		Unchanged: 0/0
  2098 ;; Data sizes:     COMMON   BANK0   BANK1   BANK3   BANK2
  2099 ;;      Params:         0       0       0       0       0
  2100 ;;      Locals:         0       0       0       0       0
  2101 ;;      Temps:          0       0       0       0       0
  2102 ;;      Totals:         0       0       0       0       0
  2103 ;;Total ram usage:        0 bytes
  2104 ;; Hardware stack levels used:    1
  2105 ;; Hardware stack levels required when called:    3
  2106 ;; This function calls:
  2107 ;;		_delay_us
  2108 ;;		_LCD_CmdWrite
  2109 ;; This function is called by:
  2110 ;;		_main
  2111 ;; This function uses a non-reentrant model
  2112 ;;
  2113                           psect	text532
  2114                           	file	"C:\Users\Xplore_labZ\Saved Games\Desktop\Sample_Programs_updated\Pic\Pro_Pic\RTC\
                                 RTC_LCD\lcd_4_bit.c"
  2115                           	line	74
  2116                           	global	__size_of_LCD_Init
  2117  002B                     	__size_of_LCD_Init	equ	__end_of_LCD_Init-_LCD_Init
  2118                           	
  2119  04EC                     _LCD_Init:	
  2120                           	opt	stack 4
  2121                           ; Regs used in _LCD_Init: [wreg+status,2+status,0+pclath+cstack]
  2122                           	line	75
  2123                           	
  2124  04EC                     l6113:	
  2125                           ;lcd_4_bit.c: 75: delay_us(5000);
  2126  04EC  3088               	movlw	low(01388h)
  2127  04ED  00F0               	movwf	(?_delay_us)
  2128  04EE  3013               	movlw	high(01388h)
  2129  04EF  00F1               	movwf	((?_delay_us))+1
  2130  04F0  120A  118A  2399   	fcall	_delay_us
              120A  118A         
  2131                           	line	76
  2132                           	
  2133  04F5                     l6115:	
  2134                           ;lcd_4_bit.c: 76: TRISB=0x00;
  2135  04F5  1683               	bsf	status, 5	;RP0=1, select bank1
  2136  04F6  1303               	bcf	status, 6	;RP1=0, select bank1
  2137  04F7  0186               	clrf	(134)^080h	;volatile
  2138                           	line	77
  2139                           	
  2140  04F8                     l6117:	
  2141                           ;lcd_4_bit.c: 77: LCD_CmdWrite(0x02);
  2142  04F8  3002               	movlw	(02h)
  2143  04F9  120A  118A  258E   	fcall	_LCD_CmdWrite
              120A  118A         
  2144                           	line	78
  2145                           	
  2146  04FE                     l6119:	
  2147                           ;lcd_4_bit.c: 78: LCD_CmdWrite(0x28);
  2148  04FE  3028               	movlw	(028h)
  2149  04FF  120A  118A  258E   	fcall	_LCD_CmdWrite
              120A  118A         
  2150                           	line	79
  2151                           	
  2152  0504                     l6121:	
  2153                           ;lcd_4_bit.c: 79: LCD_CmdWrite(0x0E);
  2154  0504  300E               	movlw	(0Eh)
  2155  0505  120A  118A  258E   	fcall	_LCD_CmdWrite
              120A  118A         
  2156                           	line	80
  2157                           	
  2158  050A                     l6123:	
  2159                           ;lcd_4_bit.c: 80: LCD_CmdWrite(0x01);
  2160  050A  3001               	movlw	(01h)
  2161  050B  120A  118A  258E   	fcall	_LCD_CmdWrite
              120A  118A         
  2162                           	line	81
  2163                           	
  2164  0510                     l6125:	
  2165                           ;lcd_4_bit.c: 81: LCD_CmdWrite(0x80);
  2166  0510  3080               	movlw	(080h)
  2167  0511  120A  118A  258E   	fcall	_LCD_CmdWrite
              120A  118A         
  2168                           	line	83
  2169                           	
  2170  0516                     l3534:	
  2171  0516  0008               	return
  2172                           	opt stack 0
  2173                           GLOBAL	__end_of_LCD_Init
  2174  0517                     	__end_of_LCD_Init:
  2175 ;; =============== function _LCD_Init ends ============
  2176                           
  2177                           	signat	_LCD_Init,88
  2178                           	global	_LCD_DataWrite
  2179                           psect	text533,local,class=CODE,delta=2
  2180                           global __ptext533
  2181  05D3                     __ptext533:
  2182                           
  2183 ;; *************** function _LCD_DataWrite *****************
  2184 ;; Defined at:
  2185 ;;		line 243 in file "C:\Users\Xplore_labZ\Saved Games\Desktop\Sample_Programs_updated\Pic\Pro_Pic\RTC\RTC_LCD\lcd_4_bit
       .c"
  2186 ;; Parameters:    Size  Location     Type
  2187 ;;  dat             1    wreg     unsigned char 
  2188 ;; Auto vars:     Size  Location     Type
  2189 ;;  dat             1    5[COMMON] unsigned char 
  2190 ;; Return value:  Size  Location     Type
  2191 ;;		None               void
  2192 ;; Registers used:
  2193 ;;		wreg, status,2, status,0, pclath, cstack
  2194 ;; Tracked objects:
  2195 ;;		On entry : 0/0
  2196 ;;		On exit  : 0/0
  2197 ;;		Unchanged: 0/0
  2198 ;; Data sizes:     COMMON   BANK0   BANK1   BANK3   BANK2
  2199 ;;      Params:         0       0       0       0       0
  2200 ;;      Locals:         1       0       0       0       0
  2201 ;;      Temps:          1       0       0       0       0
  2202 ;;      Totals:         2       0       0       0       0
  2203 ;;Total ram usage:        2 bytes
  2204 ;; Hardware stack levels used:    1
  2205 ;; Hardware stack levels required when called:    2
  2206 ;; This function calls:
  2207 ;;		_delay_us
  2208 ;;		_delay_ms
  2209 ;; This function is called by:
  2210 ;;		_LCD_DisplayString
  2211 ;;		_LCD_DisplayRtcTime
  2212 ;;		_LCD_DisplayRtcDate
  2213 ;;		_LCD_DisplayNumber
  2214 ;;		_LCD_ScrollMessage
  2215 ;; This function uses a non-reentrant model
  2216 ;;
  2217                           psect	text533
  2218                           	file	"C:\Users\Xplore_labZ\Saved Games\Desktop\Sample_Programs_updated\Pic\Pro_Pic\RTC\
                                 RTC_LCD\lcd_4_bit.c"
  2219                           	line	243
  2220                           	global	__size_of_LCD_DataWrite
  2221  0045                     	__size_of_LCD_DataWrite	equ	__end_of_LCD_DataWrite-_LCD_DataWrite
  2222                           	
  2223  05D3                     _LCD_DataWrite:	
  2224                           	opt	stack 4
  2225                           ; Regs used in _LCD_DataWrite: [wreg+status,2+status,0+pclath+cstack]
  2226                           ;LCD_DataWrite@dat stored from wreg
  2227                           	line	246
  2228  05D3  00F5               	movwf	(LCD_DataWrite@dat)
  2229                           	
  2230  05D4                     l6085:	
  2231                           ;lcd_4_bit.c: 246: PORTB=(dat & 0xf0);
  2232  05D4  0875               	movf	(LCD_DataWrite@dat),w
  2233  05D5  39F0               	andlw	0F0h
  2234  05D6  1283               	bcf	status, 5	;RP0=0, select bank0
  2235  05D7  1303               	bcf	status, 6	;RP1=0, select bank0
  2236  05D8  0086               	movwf	(6)	;volatile
  2237                           	line	247
  2238                           	
  2239  05D9                     l6087:	
  2240                           ;lcd_4_bit.c: 247: RB0=1;
  2241  05D9  1406               	bsf	(48/8),(48)&7
  2242                           	line	248
  2243                           	
  2244  05DA                     l6089:	
  2245                           ;lcd_4_bit.c: 248: RB1=0;
  2246  05DA  1086               	bcf	(49/8),(49)&7
  2247                           	line	249
  2248                           	
  2249  05DB                     l6091:	
  2250                           ;lcd_4_bit.c: 249: RB2=1;
  2251  05DB  1506               	bsf	(50/8),(50)&7
  2252                           	line	250
  2253                           	
  2254  05DC                     l6093:	
  2255                           ;lcd_4_bit.c: 250: delay_us(10);
  2256  05DC  300A               	movlw	low(0Ah)
  2257  05DD  00F0               	movwf	(?_delay_us)
  2258  05DE  3000               	movlw	high(0Ah)
  2259  05DF  00F1               	movwf	((?_delay_us))+1
  2260  05E0  120A  118A  2399   	fcall	_delay_us
              120A  118A         
  2261                           	line	251
  2262                           	
  2263  05E5                     l6095:	
  2264                           ;lcd_4_bit.c: 251: RB2=0;
  2265  05E5  1283               	bcf	status, 5	;RP0=0, select bank0
  2266  05E6  1303               	bcf	status, 6	;RP1=0, select bank0
  2267  05E7  1106               	bcf	(50/8),(50)&7
  2268                           	line	253
  2269                           	
  2270  05E8                     l6097:	
  2271                           ;lcd_4_bit.c: 253: delay_us(10);
  2272  05E8  300A               	movlw	low(0Ah)
  2273  05E9  00F0               	movwf	(?_delay_us)
  2274  05EA  3000               	movlw	high(0Ah)
  2275  05EB  00F1               	movwf	((?_delay_us))+1
  2276  05EC  120A  118A  2399   	fcall	_delay_us
              120A  118A         
  2277                           	line	255
  2278                           	
  2279  05F1                     l6099:	
  2280                           ;lcd_4_bit.c: 255: PORTB=((dat <<4) & 0xf0);
  2281  05F1  0875               	movf	(LCD_DataWrite@dat),w
  2282  05F2  00F4               	movwf	(??_LCD_DataWrite+0)+0
  2283  05F3  3003               	movlw	(04h)-1
  2284  05F4                     u2655:
  2285  05F4  1003               	clrc
  2286  05F5  0DF4               	rlf	(??_LCD_DataWrite+0)+0,f
  2287  05F6  3EFF               	addlw	-1
  2288  05F7  1D03               	skipz
  2289  05F8  2DF4               	goto	u2655
  2290  05F9  1003               	clrc
  2291  05FA  0D74               	rlf	(??_LCD_DataWrite+0)+0,w
  2292  05FB  39F0               	andlw	0F0h
  2293  05FC  1283               	bcf	status, 5	;RP0=0, select bank0
  2294  05FD  1303               	bcf	status, 6	;RP1=0, select bank0
  2295  05FE  0086               	movwf	(6)	;volatile
  2296                           	line	256
  2297                           	
  2298  05FF                     l6101:	
  2299                           ;lcd_4_bit.c: 256: RB0=1;
  2300  05FF  1406               	bsf	(48/8),(48)&7
  2301                           	line	257
  2302                           	
  2303  0600                     l6103:	
  2304                           ;lcd_4_bit.c: 257: RB1=0;
  2305  0600  1086               	bcf	(49/8),(49)&7
  2306                           	line	258
  2307                           	
  2308  0601                     l6105:	
  2309                           ;lcd_4_bit.c: 258: RB2=1;
  2310  0601  1506               	bsf	(50/8),(50)&7
  2311                           	line	259
  2312                           	
  2313  0602                     l6107:	
  2314                           ;lcd_4_bit.c: 259: delay_us(10);
  2315  0602  300A               	movlw	low(0Ah)
  2316  0603  00F0               	movwf	(?_delay_us)
  2317  0604  3000               	movlw	high(0Ah)
  2318  0605  00F1               	movwf	((?_delay_us))+1
  2319  0606  120A  118A  2399   	fcall	_delay_us
              120A  118A         
  2320                           	line	260
  2321                           	
  2322  060B                     l6109:	
  2323                           ;lcd_4_bit.c: 260: RB2=0;
  2324  060B  1283               	bcf	status, 5	;RP0=0, select bank0
  2325  060C  1303               	bcf	status, 6	;RP1=0, select bank0
  2326  060D  1106               	bcf	(50/8),(50)&7
  2327                           	line	262
  2328                           	
  2329  060E                     l6111:	
  2330                           ;lcd_4_bit.c: 262: delay_ms(1);
  2331  060E  3001               	movlw	low(01h)
  2332  060F  00F2               	movwf	(?_delay_ms)
  2333  0610  3000               	movlw	high(01h)
  2334  0611  00F3               	movwf	((?_delay_ms))+1
  2335  0612  120A  118A  23A9   	fcall	_delay_ms
              120A  118A         
  2336                           	line	264
  2337                           	
  2338  0617                     l3554:	
  2339  0617  0008               	return
  2340                           	opt stack 0
  2341                           GLOBAL	__end_of_LCD_DataWrite
  2342  0618                     	__end_of_LCD_DataWrite:
  2343 ;; =============== function _LCD_DataWrite ends ============
  2344                           
  2345                           	signat	_LCD_DataWrite,4216
  2346                           	global	_LCD_CmdWrite
  2347                           psect	text534,local,class=CODE,delta=2
  2348                           global __ptext534
  2349  058E                     __ptext534:
  2350                           
  2351 ;; *************** function _LCD_CmdWrite *****************
  2352 ;; Defined at:
  2353 ;;		line 193 in file "C:\Users\Xplore_labZ\Saved Games\Desktop\Sample_Programs_updated\Pic\Pro_Pic\RTC\RTC_LCD\lcd_4_bit
       .c"
  2354 ;; Parameters:    Size  Location     Type
  2355 ;;  cmd             1    wreg     unsigned char 
  2356 ;; Auto vars:     Size  Location     Type
  2357 ;;  cmd             1    5[COMMON] unsigned char 
  2358 ;; Return value:  Size  Location     Type
  2359 ;;		None               void
  2360 ;; Registers used:
  2361 ;;		wreg, status,2, status,0, pclath, cstack
  2362 ;; Tracked objects:
  2363 ;;		On entry : 0/0
  2364 ;;		On exit  : 0/0
  2365 ;;		Unchanged: 0/0
  2366 ;; Data sizes:     COMMON   BANK0   BANK1   BANK3   BANK2
  2367 ;;      Params:         0       0       0       0       0
  2368 ;;      Locals:         1       0       0       0       0
  2369 ;;      Temps:          1       0       0       0       0
  2370 ;;      Totals:         2       0       0       0       0
  2371 ;;Total ram usage:        2 bytes
  2372 ;; Hardware stack levels used:    1
  2373 ;; Hardware stack levels required when called:    2
  2374 ;; This function calls:
  2375 ;;		_delay_us
  2376 ;;		_delay_ms
  2377 ;; This function is called by:
  2378 ;;		_LCD_Init
  2379 ;;		_LCD_GoToLineTwo
  2380 ;;		_LCD_GoToXY
  2381 ;;		_LCD_Clear
  2382 ;;		_LCD_GoToLineOne
  2383 ;;		_LCD_ScrollMessage
  2384 ;; This function uses a non-reentrant model
  2385 ;;
  2386                           psect	text534
  2387                           	file	"C:\Users\Xplore_labZ\Saved Games\Desktop\Sample_Programs_updated\Pic\Pro_Pic\RTC\
                                 RTC_LCD\lcd_4_bit.c"
  2388                           	line	193
  2389                           	global	__size_of_LCD_CmdWrite
  2390  0045                     	__size_of_LCD_CmdWrite	equ	__end_of_LCD_CmdWrite-_LCD_CmdWrite
  2391                           	
  2392  058E                     _LCD_CmdWrite:	
  2393                           	opt	stack 4
  2394                           ; Regs used in _LCD_CmdWrite: [wreg+status,2+status,0+pclath+cstack]
  2395                           ;LCD_CmdWrite@cmd stored from wreg
  2396                           	line	195
  2397  058E  00F5               	movwf	(LCD_CmdWrite@cmd)
  2398                           	
  2399  058F                     l6057:	
  2400                           ;lcd_4_bit.c: 195: PORTB=(cmd & 0xf0);
  2401  058F  0875               	movf	(LCD_CmdWrite@cmd),w
  2402  0590  39F0               	andlw	0F0h
  2403  0591  1283               	bcf	status, 5	;RP0=0, select bank0
  2404  0592  1303               	bcf	status, 6	;RP1=0, select bank0
  2405  0593  0086               	movwf	(6)	;volatile
  2406                           	line	196
  2407                           	
  2408  0594                     l6059:	
  2409                           ;lcd_4_bit.c: 196: RB0=0;
  2410  0594  1006               	bcf	(48/8),(48)&7
  2411                           	line	197
  2412                           	
  2413  0595                     l6061:	
  2414                           ;lcd_4_bit.c: 197: RB1=0;
  2415  0595  1086               	bcf	(49/8),(49)&7
  2416                           	line	198
  2417                           	
  2418  0596                     l6063:	
  2419                           ;lcd_4_bit.c: 198: RB2=1;
  2420  0596  1506               	bsf	(50/8),(50)&7
  2421                           	line	199
  2422                           	
  2423  0597                     l6065:	
  2424                           ;lcd_4_bit.c: 199: delay_us(10);
  2425  0597  300A               	movlw	low(0Ah)
  2426  0598  00F0               	movwf	(?_delay_us)
  2427  0599  3000               	movlw	high(0Ah)
  2428  059A  00F1               	movwf	((?_delay_us))+1
  2429  059B  120A  118A  2399   	fcall	_delay_us
              120A  118A         
  2430                           	line	200
  2431                           	
  2432  05A0                     l6067:	
  2433                           ;lcd_4_bit.c: 200: RB2=0;
  2434  05A0  1283               	bcf	status, 5	;RP0=0, select bank0
  2435  05A1  1303               	bcf	status, 6	;RP1=0, select bank0
  2436  05A2  1106               	bcf	(50/8),(50)&7
  2437                           	line	202
  2438                           	
  2439  05A3                     l6069:	
  2440                           ;lcd_4_bit.c: 202: delay_us(10);
  2441  05A3  300A               	movlw	low(0Ah)
  2442  05A4  00F0               	movwf	(?_delay_us)
  2443  05A5  3000               	movlw	high(0Ah)
  2444  05A6  00F1               	movwf	((?_delay_us))+1
  2445  05A7  120A  118A  2399   	fcall	_delay_us
              120A  118A         
  2446                           	line	204
  2447                           	
  2448  05AC                     l6071:	
  2449                           ;lcd_4_bit.c: 204: PORTB=((cmd<<4) & 0xf0);
  2450  05AC  0875               	movf	(LCD_CmdWrite@cmd),w
  2451  05AD  00F4               	movwf	(??_LCD_CmdWrite+0)+0
  2452  05AE  3003               	movlw	(04h)-1
  2453  05AF                     u2645:
  2454  05AF  1003               	clrc
  2455  05B0  0DF4               	rlf	(??_LCD_CmdWrite+0)+0,f
  2456  05B1  3EFF               	addlw	-1
  2457  05B2  1D03               	skipz
  2458  05B3  2DAF               	goto	u2645
  2459  05B4  1003               	clrc
  2460  05B5  0D74               	rlf	(??_LCD_CmdWrite+0)+0,w
  2461  05B6  39F0               	andlw	0F0h
  2462  05B7  1283               	bcf	status, 5	;RP0=0, select bank0
  2463  05B8  1303               	bcf	status, 6	;RP1=0, select bank0
  2464  05B9  0086               	movwf	(6)	;volatile
  2465                           	line	205
  2466                           	
  2467  05BA                     l6073:	
  2468                           ;lcd_4_bit.c: 205: RB0=0;
  2469  05BA  1006               	bcf	(48/8),(48)&7
  2470                           	line	206
  2471                           	
  2472  05BB                     l6075:	
  2473                           ;lcd_4_bit.c: 206: RB1=0;
  2474  05BB  1086               	bcf	(49/8),(49)&7
  2475                           	line	207
  2476                           	
  2477  05BC                     l6077:	
  2478                           ;lcd_4_bit.c: 207: RB2=1;
  2479  05BC  1506               	bsf	(50/8),(50)&7
  2480                           	line	208
  2481                           	
  2482  05BD                     l6079:	
  2483                           ;lcd_4_bit.c: 208: delay_us(10);
  2484  05BD  300A               	movlw	low(0Ah)
  2485  05BE  00F0               	movwf	(?_delay_us)
  2486  05BF  3000               	movlw	high(0Ah)
  2487  05C0  00F1               	movwf	((?_delay_us))+1
  2488  05C1  120A  118A  2399   	fcall	_delay_us
              120A  118A         
  2489                           	line	209
  2490                           	
  2491  05C6                     l6081:	
  2492                           ;lcd_4_bit.c: 209: RB2=0;
  2493  05C6  1283               	bcf	status, 5	;RP0=0, select bank0
  2494  05C7  1303               	bcf	status, 6	;RP1=0, select bank0
  2495  05C8  1106               	bcf	(50/8),(50)&7
  2496                           	line	211
  2497                           	
  2498  05C9                     l6083:	
  2499                           ;lcd_4_bit.c: 211: delay_ms(1);
  2500  05C9  3001               	movlw	low(01h)
  2501  05CA  00F2               	movwf	(?_delay_ms)
  2502  05CB  3000               	movlw	high(01h)
  2503  05CC  00F3               	movwf	((?_delay_ms))+1
  2504  05CD  120A  118A  23A9   	fcall	_delay_ms
              120A  118A         
  2505                           	line	212
  2506                           	
  2507  05D2                     l3551:	
  2508  05D2  0008               	return
  2509                           	opt stack 0
  2510                           GLOBAL	__end_of_LCD_CmdWrite
  2511  05D3                     	__end_of_LCD_CmdWrite:
  2512 ;; =============== function _LCD_CmdWrite ends ============
  2513                           
  2514                           	signat	_LCD_CmdWrite,4216
  2515                           	global	_I2C_NoAck
  2516                           psect	text535,local,class=CODE,delta=2
  2517                           global __ptext535
  2518  0380                     __ptext535:
  2519                           
  2520 ;; *************** function _I2C_NoAck *****************
  2521 ;; Defined at:
  2522 ;;		line 264 in file "C:\Users\Xplore_labZ\Saved Games\Desktop\Sample_Programs_updated\Pic\Pro_Pic\RTC\RTC_LCD\i2c.c"
  2523 ;; Parameters:    Size  Location     Type
  2524 ;;		None
  2525 ;; Auto vars:     Size  Location     Type
  2526 ;;		None
  2527 ;; Return value:  Size  Location     Type
  2528 ;;		None               void
  2529 ;; Registers used:
  2530 ;;		wreg, status,2, status,0, pclath, cstack
  2531 ;; Tracked objects:
  2532 ;;		On entry : 0/0
  2533 ;;		On exit  : 0/0
  2534 ;;		Unchanged: 0/0
  2535 ;; Data sizes:     COMMON   BANK0   BANK1   BANK3   BANK2
  2536 ;;      Params:         0       0       0       0       0
  2537 ;;      Locals:         0       0       0       0       0
  2538 ;;      Temps:          0       0       0       0       0
  2539 ;;      Totals:         0       0       0       0       0
  2540 ;;Total ram usage:        0 bytes
  2541 ;; Hardware stack levels used:    1
  2542 ;; Hardware stack levels required when called:    2
  2543 ;; This function calls:
  2544 ;;		_I2C_Clock
  2545 ;; This function is called by:
  2546 ;;		_DS1307_GetTime
  2547 ;;		_DS1307_GetDate
  2548 ;; This function uses a non-reentrant model
  2549 ;;
  2550                           psect	text535
  2551                           	file	"C:\Users\Xplore_labZ\Saved Games\Desktop\Sample_Programs_updated\Pic\Pro_Pic\RTC\
                                 RTC_LCD\i2c.c"
  2552                           	line	264
  2553                           	global	__size_of_I2C_NoAck
  2554  000C                     	__size_of_I2C_NoAck	equ	__end_of_I2C_NoAck-_I2C_NoAck
  2555                           	
  2556  0380                     _I2C_NoAck:	
  2557                           	opt	stack 4
  2558                           ; Regs used in _I2C_NoAck: [wreg+status,2+status,0+pclath+cstack]
  2559                           	line	265
  2560                           	
  2561  0380                     l6051:	
  2562                           ;i2c.c: 265: RC4 = 1;
  2563  0380  1283               	bcf	status, 5	;RP0=0, select bank0
  2564  0381  1303               	bcf	status, 6	;RP1=0, select bank0
  2565  0382  1607               	bsf	(60/8),(60)&7
  2566                           	line	266
  2567                           	
  2568  0383                     l6053:	
  2569                           ;i2c.c: 266: I2C_Clock();
  2570  0383  120A  118A  23C2   	fcall	_I2C_Clock
              120A  118A         
  2571                           	line	267
  2572                           	
  2573  0388                     l6055:	
  2574                           ;i2c.c: 267: RC3 = 1;
  2575  0388  1283               	bcf	status, 5	;RP0=0, select bank0
  2576  0389  1303               	bcf	status, 6	;RP1=0, select bank0
  2577  038A  1587               	bsf	(59/8),(59)&7
  2578                           	line	268
  2579                           	
  2580  038B                     l2843:	
  2581  038B  0008               	return
  2582                           	opt stack 0
  2583                           GLOBAL	__end_of_I2C_NoAck
  2584  038C                     	__end_of_I2C_NoAck:
  2585 ;; =============== function _I2C_NoAck ends ============
  2586                           
  2587                           	signat	_I2C_NoAck,88
  2588                           	global	_I2C_Ack
  2589                           psect	text536,local,class=CODE,delta=2
  2590                           global __ptext536
  2591  0374                     __ptext536:
  2592                           
  2593 ;; *************** function _I2C_Ack *****************
  2594 ;; Defined at:
  2595 ;;		line 244 in file "C:\Users\Xplore_labZ\Saved Games\Desktop\Sample_Programs_updated\Pic\Pro_Pic\RTC\RTC_LCD\i2c.c"
  2596 ;; Parameters:    Size  Location     Type
  2597 ;;		None
  2598 ;; Auto vars:     Size  Location     Type
  2599 ;;		None
  2600 ;; Return value:  Size  Location     Type
  2601 ;;		None               void
  2602 ;; Registers used:
  2603 ;;		wreg, status,2, status,0, pclath, cstack
  2604 ;; Tracked objects:
  2605 ;;		On entry : 0/0
  2606 ;;		On exit  : 0/0
  2607 ;;		Unchanged: 0/0
  2608 ;; Data sizes:     COMMON   BANK0   BANK1   BANK3   BANK2
  2609 ;;      Params:         0       0       0       0       0
  2610 ;;      Locals:         0       0       0       0       0
  2611 ;;      Temps:          0       0       0       0       0
  2612 ;;      Totals:         0       0       0       0       0
  2613 ;;Total ram usage:        0 bytes
  2614 ;; Hardware stack levels used:    1
  2615 ;; Hardware stack levels required when called:    2
  2616 ;; This function calls:
  2617 ;;		_I2C_Clock
  2618 ;; This function is called by:
  2619 ;;		_DS1307_GetTime
  2620 ;;		_DS1307_GetDate
  2621 ;; This function uses a non-reentrant model
  2622 ;;
  2623                           psect	text536
  2624                           	file	"C:\Users\Xplore_labZ\Saved Games\Desktop\Sample_Programs_updated\Pic\Pro_Pic\RTC\
                                 RTC_LCD\i2c.c"
  2625                           	line	244
  2626                           	global	__size_of_I2C_Ack
  2627  000C                     	__size_of_I2C_Ack	equ	__end_of_I2C_Ack-_I2C_Ack
  2628                           	
  2629  0374                     _I2C_Ack:	
  2630                           	opt	stack 4
  2631                           ; Regs used in _I2C_Ack: [wreg+status,2+status,0+pclath+cstack]
  2632                           	line	245
  2633                           	
  2634  0374                     l6045:	
  2635                           ;i2c.c: 245: RC4 = 0;
  2636  0374  1283               	bcf	status, 5	;RP0=0, select bank0
  2637  0375  1303               	bcf	status, 6	;RP1=0, select bank0
  2638  0376  1207               	bcf	(60/8),(60)&7
  2639                           	line	246
  2640                           	
  2641  0377                     l6047:	
  2642                           ;i2c.c: 246: I2C_Clock();
  2643  0377  120A  118A  23C2   	fcall	_I2C_Clock
              120A  118A         
  2644                           	line	247
  2645                           	
  2646  037C                     l6049:	
  2647                           ;i2c.c: 247: RC4 = 1;
  2648  037C  1283               	bcf	status, 5	;RP0=0, select bank0
  2649  037D  1303               	bcf	status, 6	;RP1=0, select bank0
  2650  037E  1607               	bsf	(60/8),(60)&7
  2651                           	line	248
  2652                           	
  2653  037F                     l2840:	
  2654  037F  0008               	return
  2655                           	opt stack 0
  2656                           GLOBAL	__end_of_I2C_Ack
  2657  0380                     	__end_of_I2C_Ack:
  2658 ;; =============== function _I2C_Ack ends ============
  2659                           
  2660                           	signat	_I2C_Ack,88
  2661                           	global	_DS1307_Read
  2662                           psect	text537,local,class=CODE,delta=2
  2663                           global __ptext537
  2664  0369                     __ptext537:
  2665                           
  2666 ;; *************** function _DS1307_Read *****************
  2667 ;; Defined at:
  2668 ;;		line 95 in file "C:\Users\Xplore_labZ\Saved Games\Desktop\Sample_Programs_updated\Pic\Pro_Pic\RTC\RTC_LCD\ds1307.c"
  2669 ;; Parameters:    Size  Location     Type
  2670 ;;		None
  2671 ;; Auto vars:     Size  Location     Type
  2672 ;;  dat             1    7[COMMON] unsigned char 
  2673 ;; Return value:  Size  Location     Type
  2674 ;;                  1    wreg      unsigned char 
  2675 ;; Registers used:
  2676 ;;		wreg, status,2, status,0, pclath, cstack
  2677 ;; Tracked objects:
  2678 ;;		On entry : 0/0
  2679 ;;		On exit  : 0/0
  2680 ;;		Unchanged: 0/0
  2681 ;; Data sizes:     COMMON   BANK0   BANK1   BANK3   BANK2
  2682 ;;      Params:         0       0       0       0       0
  2683 ;;      Locals:         1       0       0       0       0
  2684 ;;      Temps:          1       0       0       0       0
  2685 ;;      Totals:         2       0       0       0       0
  2686 ;;Total ram usage:        2 bytes
  2687 ;; Hardware stack levels used:    1
  2688 ;; Hardware stack levels required when called:    2
  2689 ;; This function calls:
  2690 ;;		_I2C_Read
  2691 ;; This function is called by:
  2692 ;;		_DS1307_GetTime
  2693 ;;		_DS1307_GetDate
  2694 ;; This function uses a non-reentrant model
  2695 ;;
  2696                           psect	text537
  2697                           	file	"C:\Users\Xplore_labZ\Saved Games\Desktop\Sample_Programs_updated\Pic\Pro_Pic\RTC\
                                 RTC_LCD\ds1307.c"
  2698                           	line	95
  2699                           	global	__size_of_DS1307_Read
  2700  000B                     	__size_of_DS1307_Read	equ	__end_of_DS1307_Read-_DS1307_Read
  2701                           	
  2702  0369                     _DS1307_Read:	
  2703                           	opt	stack 4
  2704                           ; Regs used in _DS1307_Read: [wreg+status,2+status,0+pclath+cstack]
  2705                           	line	97
  2706                           	
  2707  0369                     l6039:	
  2708                           ;ds1307.c: 96: unsigned char dat;
  2709                           ;ds1307.c: 97: dat = I2C_Read();
  2710  0369  120A  118A  254C   	fcall	_I2C_Read
              120A  118A         
  2711  036E  00F6               	movwf	(??_DS1307_Read+0)+0
  2712  036F  0876               	movf	(??_DS1307_Read+0)+0,w
  2713  0370  00F7               	movwf	(DS1307_Read@dat)
  2714                           	line	98
  2715                           	
  2716  0371                     l6041:	
  2717                           ;ds1307.c: 98: return(dat);
  2718  0371  0877               	movf	(DS1307_Read@dat),w
  2719  0372  2B73               	goto	l2119
  2720                           	
  2721  0373                     l6043:	
  2722                           	line	99
  2723                           	
  2724  0373                     l2119:	
  2725  0373  0008               	return
  2726                           	opt stack 0
  2727                           GLOBAL	__end_of_DS1307_Read
  2728  0374                     	__end_of_DS1307_Read:
  2729 ;; =============== function _DS1307_Read ends ============
  2730                           
  2731                           	signat	_DS1307_Read,89
  2732                           	global	_I2C_Write
  2733                           psect	text538,local,class=CODE,delta=2
  2734                           global __ptext538
  2735  0517                     __ptext538:
  2736                           
  2737 ;; *************** function _I2C_Write *****************
  2738 ;; Defined at:
  2739 ;;		line 169 in file "C:\Users\Xplore_labZ\Saved Games\Desktop\Sample_Programs_updated\Pic\Pro_Pic\RTC\RTC_LCD\i2c.c"
  2740 ;; Parameters:    Size  Location     Type
  2741 ;;  dat             1    wreg     unsigned char 
  2742 ;; Auto vars:     Size  Location     Type
  2743 ;;  dat             1    4[COMMON] unsigned char 
  2744 ;;  i               1    5[COMMON] unsigned char 
  2745 ;; Return value:  Size  Location     Type
  2746 ;;		None               void
  2747 ;; Registers used:
  2748 ;;		wreg, status,2, status,0, pclath, cstack
  2749 ;; Tracked objects:
  2750 ;;		On entry : 0/0
  2751 ;;		On exit  : 0/0
  2752 ;;		Unchanged: 0/0
  2753 ;; Data sizes:     COMMON   BANK0   BANK1   BANK3   BANK2
  2754 ;;      Params:         0       0       0       0       0
  2755 ;;      Locals:         2       0       0       0       0
  2756 ;;      Temps:          2       0       0       0       0
  2757 ;;      Totals:         4       0       0       0       0
  2758 ;;Total ram usage:        4 bytes
  2759 ;; Hardware stack levels used:    1
  2760 ;; Hardware stack levels required when called:    2
  2761 ;; This function calls:
  2762 ;;		_I2C_Clock
  2763 ;; This function is called by:
  2764 ;;		_DS1307_Write
  2765 ;; This function uses a non-reentrant model
  2766 ;;
  2767                           psect	text538
  2768                           	file	"C:\Users\Xplore_labZ\Saved Games\Desktop\Sample_Programs_updated\Pic\Pro_Pic\RTC\
                                 RTC_LCD\i2c.c"
  2769                           	line	169
  2770                           	global	__size_of_I2C_Write
  2771  0035                     	__size_of_I2C_Write	equ	__end_of_I2C_Write-_I2C_Write
  2772                           	
  2773  0517                     _I2C_Write:	
  2774                           	opt	stack 3
  2775                           ; Regs used in _I2C_Write: [wreg+status,2+status,0+pclath+cstack]
  2776                           ;I2C_Write@dat stored from wreg
  2777                           	line	172
  2778  0517  00F4               	movwf	(I2C_Write@dat)
  2779                           	
  2780  0518                     l6023:	
  2781                           ;i2c.c: 170: unsigned char i;
  2782                           ;i2c.c: 172: for(i=0;i<8;i++)
  2783  0518  01F5               	clrf	(I2C_Write@i)
  2784                           	
  2785  0519                     l6025:	
  2786  0519  3008               	movlw	(08h)
  2787  051A  0275               	subwf	(I2C_Write@i),w
  2788  051B  1C03               	skipc
  2789  051C  2D1E               	goto	u2591
  2790  051D  2D1F               	goto	u2590
  2791  051E                     u2591:
  2792  051E  2D21               	goto	l6029
  2793  051F                     u2590:
  2794  051F  2D48               	goto	l2831
  2795                           	
  2796  0520                     l6027:	
  2797  0520  2D48               	goto	l2831
  2798                           	line	173
  2799                           	
  2800  0521                     l2830:	
  2801                           	line	174
  2802                           	
  2803  0521                     l6029:	
  2804                           ;i2c.c: 173: {
  2805                           ;i2c.c: 174: RC4 = (dat & 0x80)>>7;
  2806  0521  0874               	movf	(I2C_Write@dat),w
  2807  0522  00F2               	movwf	(??_I2C_Write+0)+0
  2808  0523  3007               	movlw	07h
  2809  0524                     u2605:
  2810  0524  1003               	clrc
  2811  0525  0CF2               	rrf	(??_I2C_Write+0)+0,f
  2812  0526  3EFF               	addlw	-1
  2813  0527  1D03               	skipz
  2814  0528  2D24               	goto	u2605
  2815  0529  1872               	btfsc	0+(??_I2C_Write+0)+0,0
  2816  052A  2D2C               	goto	u2611
  2817  052B  2D30               	goto	u2610
  2818                           	
  2819  052C                     u2611:
  2820  052C  1283               	bcf	status, 5	;RP0=0, select bank0
  2821  052D  1303               	bcf	status, 6	;RP1=0, select bank0
  2822  052E  1607               	bsf	(60/8),(60)&7
  2823  052F  2D33               	goto	u2624
  2824  0530                     u2610:
  2825  0530  1283               	bcf	status, 5	;RP0=0, select bank0
  2826  0531  1303               	bcf	status, 6	;RP1=0, select bank0
  2827  0532  1207               	bcf	(60/8),(60)&7
  2828  0533                     u2624:
  2829                           	line	175
  2830                           	
  2831  0533                     l6031:	
  2832                           ;i2c.c: 175: I2C_Clock();
  2833  0533  120A  118A  23C2   	fcall	_I2C_Clock
              120A  118A         
  2834                           	line	176
  2835                           	
  2836  0538                     l6033:	
  2837                           ;i2c.c: 176: dat = dat<<1;
  2838  0538  0874               	movf	(I2C_Write@dat),w
  2839  0539  00F2               	movwf	(??_I2C_Write+0)+0
  2840  053A  0772               	addwf	(??_I2C_Write+0)+0,w
  2841  053B  00F3               	movwf	(??_I2C_Write+1)+0
  2842  053C  0873               	movf	(??_I2C_Write+1)+0,w
  2843  053D  00F4               	movwf	(I2C_Write@dat)
  2844                           	line	172
  2845                           	
  2846  053E                     l6035:	
  2847  053E  3001               	movlw	(01h)
  2848  053F  00F2               	movwf	(??_I2C_Write+0)+0
  2849  0540  0872               	movf	(??_I2C_Write+0)+0,w
  2850  0541  07F5               	addwf	(I2C_Write@i),f
  2851                           	
  2852  0542                     l6037:	
  2853  0542  3008               	movlw	(08h)
  2854  0543  0275               	subwf	(I2C_Write@i),w
  2855  0544  1C03               	skipc
  2856  0545  2D47               	goto	u2631
  2857  0546  2D48               	goto	u2630
  2858  0547                     u2631:
  2859  0547  2D21               	goto	l6029
  2860  0548                     u2630:
  2861                           	
  2862  0548                     l2831:	
  2863                           	line	178
  2864                           ;i2c.c: 177: }
  2865                           ;i2c.c: 178: RC4 = 1;
  2866  0548  1283               	bcf	status, 5	;RP0=0, select bank0
  2867  0549  1303               	bcf	status, 6	;RP1=0, select bank0
  2868  054A  1607               	bsf	(60/8),(60)&7
  2869                           	line	180
  2870                           	
  2871  054B                     l2832:	
  2872  054B  0008               	return
  2873                           	opt stack 0
  2874                           GLOBAL	__end_of_I2C_Write
  2875  054C                     	__end_of_I2C_Write:
  2876 ;; =============== function _I2C_Write ends ============
  2877                           
  2878                           	signat	_I2C_Write,4216
  2879                           	global	_I2C_Read
  2880                           psect	text539,local,class=CODE,delta=2
  2881                           global __ptext539
  2882  054C                     __ptext539:
  2883                           
  2884 ;; *************** function _I2C_Read *****************
  2885 ;; Defined at:
  2886 ;;		line 207 in file "C:\Users\Xplore_labZ\Saved Games\Desktop\Sample_Programs_updated\Pic\Pro_Pic\RTC\RTC_LCD\i2c.c"
  2887 ;; Parameters:    Size  Location     Type
  2888 ;;		None
  2889 ;; Auto vars:     Size  Location     Type
  2890 ;;  dat             1    5[COMMON] unsigned char 
  2891 ;;  i               1    4[COMMON] unsigned char 
  2892 ;; Return value:  Size  Location     Type
  2893 ;;                  1    wreg      unsigned char 
  2894 ;; Registers used:
  2895 ;;		wreg, status,2, status,0, pclath, cstack
  2896 ;; Tracked objects:
  2897 ;;		On entry : 0/0
  2898 ;;		On exit  : 0/0
  2899 ;;		Unchanged: 0/0
  2900 ;; Data sizes:     COMMON   BANK0   BANK1   BANK3   BANK2
  2901 ;;      Params:         0       0       0       0       0
  2902 ;;      Locals:         2       0       0       0       0
  2903 ;;      Temps:          2       0       0       0       0
  2904 ;;      Totals:         4       0       0       0       0
  2905 ;;Total ram usage:        4 bytes
  2906 ;; Hardware stack levels used:    1
  2907 ;; Hardware stack levels required when called:    1
  2908 ;; This function calls:
  2909 ;;		_delay_us
  2910 ;; This function is called by:
  2911 ;;		_DS1307_Read
  2912 ;; This function uses a non-reentrant model
  2913 ;;
  2914                           psect	text539
  2915                           	file	"C:\Users\Xplore_labZ\Saved Games\Desktop\Sample_Programs_updated\Pic\Pro_Pic\RTC\
                                 RTC_LCD\i2c.c"
  2916                           	line	207
  2917                           	global	__size_of_I2C_Read
  2918  0042                     	__size_of_I2C_Read	equ	__end_of_I2C_Read-_I2C_Read
  2919                           	
  2920  054C                     _I2C_Read:	
  2921                           	opt	stack 4
  2922                           ; Regs used in _I2C_Read: [wreg+status,2+status,0+pclath+cstack]
  2923                           	line	208
  2924                           	
  2925  054C                     l5999:	
  2926                           ;i2c.c: 208: unsigned char i, dat=0x00;
  2927  054C  01F5               	clrf	(I2C_Read@dat)
  2928                           	line	210
  2929                           ;i2c.c: 210: TRISC4=1;
  2930  054D  1683               	bsf	status, 5	;RP0=1, select bank1
  2931  054E  1303               	bcf	status, 6	;RP1=0, select bank1
  2932  054F  1607               	bsf	(1084/8)^080h,(1084)&7
  2933                           	line	211
  2934                           ;i2c.c: 211: for(i=0;i<8;i++)
  2935  0550  01F4               	clrf	(I2C_Read@i)
  2936                           	
  2937  0551                     l6001:	
  2938  0551  3008               	movlw	(08h)
  2939  0552  0274               	subwf	(I2C_Read@i),w
  2940  0553  1C03               	skipc
  2941  0554  2D56               	goto	u2571
  2942  0555  2D57               	goto	u2570
  2943  0556                     u2571:
  2944  0556  2D59               	goto	l6005
  2945  0557                     u2570:
  2946  0557  2D88               	goto	l2836
  2947                           	
  2948  0558                     l6003:	
  2949  0558  2D88               	goto	l2836
  2950                           	line	212
  2951                           	
  2952  0559                     l2835:	
  2953                           	line	213
  2954                           	
  2955  0559                     l6005:	
  2956                           ;i2c.c: 212: {
  2957                           ;i2c.c: 213: delay_us(1);
  2958  0559  3001               	movlw	low(01h)
  2959  055A  00F0               	movwf	(?_delay_us)
  2960  055B  3000               	movlw	high(01h)
  2961  055C  00F1               	movwf	((?_delay_us))+1
  2962  055D  120A  118A  2399   	fcall	_delay_us
              120A  118A         
  2963                           	line	216
  2964                           	
  2965  0562                     l6007:	
  2966                           ;i2c.c: 216: RC3 = 1;
  2967  0562  1283               	bcf	status, 5	;RP0=0, select bank0
  2968  0563  1303               	bcf	status, 6	;RP1=0, select bank0
  2969  0564  1587               	bsf	(59/8),(59)&7
  2970                           	line	217
  2971                           ;i2c.c: 217: delay_us(1);
  2972  0565  3001               	movlw	low(01h)
  2973  0566  00F0               	movwf	(?_delay_us)
  2974  0567  3000               	movlw	high(01h)
  2975  0568  00F1               	movwf	((?_delay_us))+1
  2976  0569  120A  118A  2399   	fcall	_delay_us
              120A  118A         
  2977                           	line	219
  2978                           	
  2979  056E                     l6009:	
  2980                           ;i2c.c: 219: dat = dat<<1;
  2981  056E  0875               	movf	(I2C_Read@dat),w
  2982  056F  00F2               	movwf	(??_I2C_Read+0)+0
  2983  0570  0772               	addwf	(??_I2C_Read+0)+0,w
  2984  0571  00F3               	movwf	(??_I2C_Read+1)+0
  2985  0572  0873               	movf	(??_I2C_Read+1)+0,w
  2986  0573  00F5               	movwf	(I2C_Read@dat)
  2987                           	line	220
  2988                           	
  2989  0574                     l6011:	
  2990                           ;i2c.c: 220: dat = dat | RC4;
  2991  0574  3000               	movlw	0
  2992  0575  1283               	bcf	status, 5	;RP0=0, select bank0
  2993  0576  1303               	bcf	status, 6	;RP1=0, select bank0
  2994  0577  1A07               	btfsc	(60/8),(60)&7
  2995  0578  3001               	movlw	1
  2996  0579  0475               	iorwf	(I2C_Read@dat),w
  2997  057A  00F2               	movwf	(??_I2C_Read+0)+0
  2998  057B  0872               	movf	(??_I2C_Read+0)+0,w
  2999  057C  00F5               	movwf	(I2C_Read@dat)
  3000                           	line	222
  3001                           	
  3002  057D                     l6013:	
  3003                           ;i2c.c: 222: RC3 = 0;
  3004  057D  1187               	bcf	(59/8),(59)&7
  3005                           	line	211
  3006                           	
  3007  057E                     l6015:	
  3008  057E  3001               	movlw	(01h)
  3009  057F  00F2               	movwf	(??_I2C_Read+0)+0
  3010  0580  0872               	movf	(??_I2C_Read+0)+0,w
  3011  0581  07F4               	addwf	(I2C_Read@i),f
  3012                           	
  3013  0582                     l6017:	
  3014  0582  3008               	movlw	(08h)
  3015  0583  0274               	subwf	(I2C_Read@i),w
  3016  0584  1C03               	skipc
  3017  0585  2D87               	goto	u2581
  3018  0586  2D88               	goto	u2580
  3019  0587                     u2581:
  3020  0587  2D59               	goto	l6005
  3021  0588                     u2580:
  3022                           	
  3023  0588                     l2836:	
  3024                           	line	224
  3025                           ;i2c.c: 223: }
  3026                           ;i2c.c: 224: TRISC4=0;
  3027  0588  1683               	bsf	status, 5	;RP0=1, select bank1
  3028  0589  1303               	bcf	status, 6	;RP1=0, select bank1
  3029  058A  1207               	bcf	(1084/8)^080h,(1084)&7
  3030                           	line	225
  3031                           	
  3032  058B                     l6019:	
  3033                           ;i2c.c: 225: return dat;
  3034  058B  0875               	movf	(I2C_Read@dat),w
  3035  058C  2D8D               	goto	l2837
  3036                           	
  3037  058D                     l6021:	
  3038                           	line	226
  3039                           	
  3040  058D                     l2837:	
  3041  058D  0008               	return
  3042                           	opt stack 0
  3043                           GLOBAL	__end_of_I2C_Read
  3044  058E                     	__end_of_I2C_Read:
  3045 ;; =============== function _I2C_Read ends ============
  3046                           
  3047                           	signat	_I2C_Read,89
  3048                           	global	_I2C_Clock
  3049                           psect	text540,local,class=CODE,delta=2
  3050                           global __ptext540
  3051  03C2                     __ptext540:
  3052                           
  3053 ;; *************** function _I2C_Clock *****************
  3054 ;; Defined at:
  3055 ;;		line 56 in file "C:\Users\Xplore_labZ\Saved Games\Desktop\Sample_Programs_updated\Pic\Pro_Pic\RTC\RTC_LCD\i2c.c"
  3056 ;; Parameters:    Size  Location     Type
  3057 ;;		None
  3058 ;; Auto vars:     Size  Location     Type
  3059 ;;		None
  3060 ;; Return value:  Size  Location     Type
  3061 ;;		None               void
  3062 ;; Registers used:
  3063 ;;		wreg, status,2, status,0, pclath, cstack
  3064 ;; Tracked objects:
  3065 ;;		On entry : 0/0
  3066 ;;		On exit  : 0/0
  3067 ;;		Unchanged: 0/0
  3068 ;; Data sizes:     COMMON   BANK0   BANK1   BANK3   BANK2
  3069 ;;      Params:         0       0       0       0       0
  3070 ;;      Locals:         0       0       0       0       0
  3071 ;;      Temps:          0       0       0       0       0
  3072 ;;      Totals:         0       0       0       0       0
  3073 ;;Total ram usage:        0 bytes
  3074 ;; Hardware stack levels used:    1
  3075 ;; Hardware stack levels required when called:    1
  3076 ;; This function calls:
  3077 ;;		_delay_us
  3078 ;; This function is called by:
  3079 ;;		_DS1307_Write
  3080 ;;		_I2C_Write
  3081 ;;		_I2C_Ack
  3082 ;;		_I2C_NoAck
  3083 ;; This function uses a non-reentrant model
  3084 ;;
  3085                           psect	text540
  3086                           	file	"C:\Users\Xplore_labZ\Saved Games\Desktop\Sample_Programs_updated\Pic\Pro_Pic\RTC\
                                 RTC_LCD\i2c.c"
  3087                           	line	56
  3088                           	global	__size_of_I2C_Clock
  3089  0019                     	__size_of_I2C_Clock	equ	__end_of_I2C_Clock-_I2C_Clock
  3090                           	
  3091  03C2                     _I2C_Clock:	
  3092                           	opt	stack 4
  3093                           ; Regs used in _I2C_Clock: [wreg+status,2+status,0+pclath+cstack]
  3094                           	line	57
  3095                           	
  3096  03C2                     l5993:	
  3097                           ;i2c.c: 57: delay_us(1);
  3098  03C2  3001               	movlw	low(01h)
  3099  03C3  00F0               	movwf	(?_delay_us)
  3100  03C4  3000               	movlw	high(01h)
  3101  03C5  00F1               	movwf	((?_delay_us))+1
  3102  03C6  120A  118A  2399   	fcall	_delay_us
              120A  118A         
  3103                           	line	58
  3104                           	
  3105  03CB                     l5995:	
  3106                           ;i2c.c: 58: RC3 = 1;
  3107  03CB  1283               	bcf	status, 5	;RP0=0, select bank0
  3108  03CC  1303               	bcf	status, 6	;RP1=0, select bank0
  3109  03CD  1587               	bsf	(59/8),(59)&7
  3110                           	line	60
  3111                           ;i2c.c: 60: delay_us(1);
  3112  03CE  3001               	movlw	low(01h)
  3113  03CF  00F0               	movwf	(?_delay_us)
  3114  03D0  3000               	movlw	high(01h)
  3115  03D1  00F1               	movwf	((?_delay_us))+1
  3116  03D2  120A  118A  2399   	fcall	_delay_us
              120A  118A         
  3117                           	line	61
  3118                           	
  3119  03D7                     l5997:	
  3120                           ;i2c.c: 61: RC3 = 0;
  3121  03D7  1283               	bcf	status, 5	;RP0=0, select bank0
  3122  03D8  1303               	bcf	status, 6	;RP1=0, select bank0
  3123  03D9  1187               	bcf	(59/8),(59)&7
  3124                           	line	62
  3125                           	
  3126  03DA                     l2821:	
  3127  03DA  0008               	return
  3128                           	opt stack 0
  3129                           GLOBAL	__end_of_I2C_Clock
  3130  03DB                     	__end_of_I2C_Clock:
  3131 ;; =============== function _I2C_Clock ends ============
  3132                           
  3133                           	signat	_I2C_Clock,88
  3134                           	global	_I2C_Stop
  3135                           psect	text541,local,class=CODE,delta=2
  3136                           global __ptext541
  3137  041E                     __ptext541:
  3138                           
  3139 ;; *************** function _I2C_Stop *****************
  3140 ;; Defined at:
  3141 ;;		line 128 in file "C:\Users\Xplore_labZ\Saved Games\Desktop\Sample_Programs_updated\Pic\Pro_Pic\RTC\RTC_LCD\i2c.c"
  3142 ;; Parameters:    Size  Location     Type
  3143 ;;		None
  3144 ;; Auto vars:     Size  Location     Type
  3145 ;;		None
  3146 ;; Return value:  Size  Location     Type
  3147 ;;		None               void
  3148 ;; Registers used:
  3149 ;;		wreg, status,2, status,0, pclath, cstack
  3150 ;; Tracked objects:
  3151 ;;		On entry : 0/0
  3152 ;;		On exit  : 0/0
  3153 ;;		Unchanged: 0/0
  3154 ;; Data sizes:     COMMON   BANK0   BANK1   BANK3   BANK2
  3155 ;;      Params:         0       0       0       0       0
  3156 ;;      Locals:         0       0       0       0       0
  3157 ;;      Temps:          0       0       0       0       0
  3158 ;;      Totals:         0       0       0       0       0
  3159 ;;Total ram usage:        0 bytes
  3160 ;; Hardware stack levels used:    1
  3161 ;; Hardware stack levels required when called:    1
  3162 ;; This function calls:
  3163 ;;		_delay_us
  3164 ;; This function is called by:
  3165 ;;		_DS1307_Init
  3166 ;;		_DS1307_SetTime
  3167 ;;		_DS1307_SetDate
  3168 ;;		_DS1307_GetTime
  3169 ;;		_DS1307_GetDate
  3170 ;; This function uses a non-reentrant model
  3171 ;;
  3172                           psect	text541
  3173                           	file	"C:\Users\Xplore_labZ\Saved Games\Desktop\Sample_Programs_updated\Pic\Pro_Pic\RTC\
                                 RTC_LCD\i2c.c"
  3174                           	line	128
  3175                           	global	__size_of_I2C_Stop
  3176  0028                     	__size_of_I2C_Stop	equ	__end_of_I2C_Stop-_I2C_Stop
  3177                           	
  3178  041E                     _I2C_Stop:	
  3179                           	opt	stack 5
  3180                           ; Regs used in _I2C_Stop: [wreg+status,2+status,0+pclath+cstack]
  3181                           	line	130
  3182                           	
  3183  041E                     l5983:	
  3184                           ;i2c.c: 130: RC3 = 0;
  3185  041E  1283               	bcf	status, 5	;RP0=0, select bank0
  3186  041F  1303               	bcf	status, 6	;RP1=0, select bank0
  3187  0420  1187               	bcf	(59/8),(59)&7
  3188                           	line	131
  3189                           	
  3190  0421                     l5985:	
  3191                           ;i2c.c: 131: delay_us(1);
  3192  0421  3001               	movlw	low(01h)
  3193  0422  00F0               	movwf	(?_delay_us)
  3194  0423  3000               	movlw	high(01h)
  3195  0424  00F1               	movwf	((?_delay_us))+1
  3196  0425  120A  118A  2399   	fcall	_delay_us
              120A  118A         
  3197                           	line	133
  3198                           	
  3199  042A                     l5987:	
  3200                           ;i2c.c: 133: RC4 = 0;
  3201  042A  1283               	bcf	status, 5	;RP0=0, select bank0
  3202  042B  1303               	bcf	status, 6	;RP1=0, select bank0
  3203  042C  1207               	bcf	(60/8),(60)&7
  3204                           	line	134
  3205                           ;i2c.c: 134: delay_us(1);
  3206  042D  3001               	movlw	low(01h)
  3207  042E  00F0               	movwf	(?_delay_us)
  3208  042F  3000               	movlw	high(01h)
  3209  0430  00F1               	movwf	((?_delay_us))+1
  3210  0431  120A  118A  2399   	fcall	_delay_us
              120A  118A         
  3211                           	line	136
  3212                           	
  3213  0436                     l5989:	
  3214                           ;i2c.c: 136: RC3 = 1;
  3215  0436  1283               	bcf	status, 5	;RP0=0, select bank0
  3216  0437  1303               	bcf	status, 6	;RP1=0, select bank0
  3217  0438  1587               	bsf	(59/8),(59)&7
  3218                           	line	137
  3219                           ;i2c.c: 137: delay_us(1);
  3220  0439  3001               	movlw	low(01h)
  3221  043A  00F0               	movwf	(?_delay_us)
  3222  043B  3000               	movlw	high(01h)
  3223  043C  00F1               	movwf	((?_delay_us))+1
  3224  043D  120A  118A  2399   	fcall	_delay_us
              120A  118A         
  3225                           	line	139
  3226                           	
  3227  0442                     l5991:	
  3228                           ;i2c.c: 139: RC4 = 1;
  3229  0442  1283               	bcf	status, 5	;RP0=0, select bank0
  3230  0443  1303               	bcf	status, 6	;RP1=0, select bank0
  3231  0444  1607               	bsf	(60/8),(60)&7
  3232                           	line	140
  3233                           	
  3234  0445                     l2827:	
  3235  0445  0008               	return
  3236                           	opt stack 0
  3237                           GLOBAL	__end_of_I2C_Stop
  3238  0446                     	__end_of_I2C_Stop:
  3239 ;; =============== function _I2C_Stop ends ============
  3240                           
  3241                           	signat	_I2C_Stop,88
  3242                           	global	_I2C_Start
  3243                           psect	text542,local,class=CODE,delta=2
  3244                           global __ptext542
  3245  0446                     __ptext542:
  3246                           
  3247 ;; *************** function _I2C_Start *****************
  3248 ;; Defined at:
  3249 ;;		line 88 in file "C:\Users\Xplore_labZ\Saved Games\Desktop\Sample_Programs_updated\Pic\Pro_Pic\RTC\RTC_LCD\i2c.c"
  3250 ;; Parameters:    Size  Location     Type
  3251 ;;		None
  3252 ;; Auto vars:     Size  Location     Type
  3253 ;;		None
  3254 ;; Return value:  Size  Location     Type
  3255 ;;		None               void
  3256 ;; Registers used:
  3257 ;;		wreg, status,2, status,0, pclath, cstack
  3258 ;; Tracked objects:
  3259 ;;		On entry : 0/0
  3260 ;;		On exit  : 0/0
  3261 ;;		Unchanged: 0/0
  3262 ;; Data sizes:     COMMON   BANK0   BANK1   BANK3   BANK2
  3263 ;;      Params:         0       0       0       0       0
  3264 ;;      Locals:         0       0       0       0       0
  3265 ;;      Temps:          0       0       0       0       0
  3266 ;;      Totals:         0       0       0       0       0
  3267 ;;Total ram usage:        0 bytes
  3268 ;; Hardware stack levels used:    1
  3269 ;; Hardware stack levels required when called:    1
  3270 ;; This function calls:
  3271 ;;		_delay_us
  3272 ;; This function is called by:
  3273 ;;		_DS1307_Init
  3274 ;;		_DS1307_SetTime
  3275 ;;		_DS1307_SetDate
  3276 ;;		_DS1307_GetTime
  3277 ;;		_DS1307_GetDate
  3278 ;; This function uses a non-reentrant model
  3279 ;;
  3280                           psect	text542
  3281                           	file	"C:\Users\Xplore_labZ\Saved Games\Desktop\Sample_Programs_updated\Pic\Pro_Pic\RTC\
                                 RTC_LCD\i2c.c"
  3282                           	line	88
  3283                           	global	__size_of_I2C_Start
  3284  0029                     	__size_of_I2C_Start	equ	__end_of_I2C_Start-_I2C_Start
  3285                           	
  3286  0446                     _I2C_Start:	
  3287                           	opt	stack 5
  3288                           ; Regs used in _I2C_Start: [wreg+status,2+status,0+pclath+cstack]
  3289                           	line	90
  3290                           	
  3291  0446                     l5973:	
  3292                           ;i2c.c: 90: RC3 = 0;
  3293  0446  1283               	bcf	status, 5	;RP0=0, select bank0
  3294  0447  1303               	bcf	status, 6	;RP1=0, select bank0
  3295  0448  1187               	bcf	(59/8),(59)&7
  3296                           	line	92
  3297                           ;i2c.c: 92: RC4 = 1;
  3298  0449  1607               	bsf	(60/8),(60)&7
  3299                           	line	93
  3300                           	
  3301  044A                     l5975:	
  3302                           ;i2c.c: 93: delay_us(1);
  3303  044A  3001               	movlw	low(01h)
  3304  044B  00F0               	movwf	(?_delay_us)
  3305  044C  3000               	movlw	high(01h)
  3306  044D  00F1               	movwf	((?_delay_us))+1
  3307  044E  120A  118A  2399   	fcall	_delay_us
              120A  118A         
  3308                           	line	95
  3309                           	
  3310  0453                     l5977:	
  3311                           ;i2c.c: 95: RC3 = 1;
  3312  0453  1283               	bcf	status, 5	;RP0=0, select bank0
  3313  0454  1303               	bcf	status, 6	;RP1=0, select bank0
  3314  0455  1587               	bsf	(59/8),(59)&7
  3315                           	line	96
  3316                           ;i2c.c: 96: delay_us(1);
  3317  0456  3001               	movlw	low(01h)
  3318  0457  00F0               	movwf	(?_delay_us)
  3319  0458  3000               	movlw	high(01h)
  3320  0459  00F1               	movwf	((?_delay_us))+1
  3321  045A  120A  118A  2399   	fcall	_delay_us
              120A  118A         
  3322                           	line	98
  3323                           	
  3324  045F                     l5979:	
  3325                           ;i2c.c: 98: RC4 = 0;
  3326  045F  1283               	bcf	status, 5	;RP0=0, select bank0
  3327  0460  1303               	bcf	status, 6	;RP1=0, select bank0
  3328  0461  1207               	bcf	(60/8),(60)&7
  3329                           	line	99
  3330                           ;i2c.c: 99: delay_us(1);
  3331  0462  3001               	movlw	low(01h)
  3332  0463  00F0               	movwf	(?_delay_us)
  3333  0464  3000               	movlw	high(01h)
  3334  0465  00F1               	movwf	((?_delay_us))+1
  3335  0466  120A  118A  2399   	fcall	_delay_us
              120A  118A         
  3336                           	line	101
  3337                           	
  3338  046B                     l5981:	
  3339                           ;i2c.c: 101: RC3 = 0;
  3340  046B  1283               	bcf	status, 5	;RP0=0, select bank0
  3341  046C  1303               	bcf	status, 6	;RP1=0, select bank0
  3342  046D  1187               	bcf	(59/8),(59)&7
  3343                           	line	103
  3344                           	
  3345  046E                     l2824:	
  3346  046E  0008               	return
  3347                           	opt stack 0
  3348                           GLOBAL	__end_of_I2C_Start
  3349  046F                     	__end_of_I2C_Start:
  3350 ;; =============== function _I2C_Start ends ============
  3351                           
  3352                           	signat	_I2C_Start,88
  3353                           	global	_delay_ms
  3354                           psect	text543,local,class=CODE,delta=2
  3355                           global __ptext543
  3356  03A9                     __ptext543:
  3357                           
  3358 ;; *************** function _delay_ms *****************
  3359 ;; Defined at:
  3360 ;;		line 47 in file "C:\Users\Xplore_labZ\Saved Games\Desktop\Sample_Programs_updated\Pic\Pro_Pic\RTC\RTC_LCD\delay.c"
  3361 ;; Parameters:    Size  Location     Type
  3362 ;;  ms_count        2    2[COMMON] unsigned int 
  3363 ;; Auto vars:     Size  Location     Type
  3364 ;;		None
  3365 ;; Return value:  Size  Location     Type
  3366 ;;		None               void
  3367 ;; Registers used:
  3368 ;;		wreg, status,2, status,0, pclath, cstack
  3369 ;; Tracked objects:
  3370 ;;		On entry : 0/0
  3371 ;;		On exit  : 0/0
  3372 ;;		Unchanged: 0/0
  3373 ;; Data sizes:     COMMON   BANK0   BANK1   BANK3   BANK2
  3374 ;;      Params:         2       0       0       0       0
  3375 ;;      Locals:         0       0       0       0       0
  3376 ;;      Temps:          0       0       0       0       0
  3377 ;;      Totals:         2       0       0       0       0
  3378 ;;Total ram usage:        2 bytes
  3379 ;; Hardware stack levels used:    1
  3380 ;; Hardware stack levels required when called:    1
  3381 ;; This function calls:
  3382 ;;		_delay_us
  3383 ;; This function is called by:
  3384 ;;		_LCD_CmdWrite
  3385 ;;		_LCD_DataWrite
  3386 ;;		_delay_sec
  3387 ;;		_LCD_ScrollMessage
  3388 ;; This function uses a non-reentrant model
  3389 ;;
  3390                           psect	text543
  3391                           	file	"C:\Users\Xplore_labZ\Saved Games\Desktop\Sample_Programs_updated\Pic\Pro_Pic\RTC\
                                 RTC_LCD\delay.c"
  3392                           	line	47
  3393                           	global	__size_of_delay_ms
  3394  0019                     	__size_of_delay_ms	equ	__end_of_delay_ms-_delay_ms
  3395                           	
  3396  03A9                     _delay_ms:	
  3397                           	opt	stack 4
  3398                           ; Regs used in _delay_ms: [wreg+status,2+status,0+pclath+cstack]
  3399                           	line	48
  3400                           	
  3401  03A9                     l5965:	
  3402                           ;delay.c: 48: while(ms_count!=0)
  3403  03A9  2BBA               	goto	l5971
  3404                           	
  3405  03AA                     l1402:	
  3406                           	line	50
  3407                           	
  3408  03AA                     l5967:	
  3409                           ;delay.c: 49: {
  3410                           ;delay.c: 50: delay_us(300);
  3411  03AA  302C               	movlw	low(012Ch)
  3412  03AB  00F0               	movwf	(?_delay_us)
  3413  03AC  3001               	movlw	high(012Ch)
  3414  03AD  00F1               	movwf	((?_delay_us))+1
  3415  03AE  120A  118A  2399   	fcall	_delay_us
              120A  118A         
  3416                           	line	51
  3417                           	
  3418  03B3                     l5969:	
  3419                           ;delay.c: 51: ms_count--;
  3420  03B3  3001               	movlw	low(01h)
  3421  03B4  02F2               	subwf	(delay_ms@ms_count),f
  3422  03B5  3000               	movlw	high(01h)
  3423  03B6  1C03               	skipc
  3424  03B7  03F3               	decf	(delay_ms@ms_count+1),f
  3425  03B8  02F3               	subwf	(delay_ms@ms_count+1),f
  3426  03B9  2BBA               	goto	l5971
  3427                           	line	52
  3428                           	
  3429  03BA                     l1401:	
  3430                           	line	48
  3431                           	
  3432  03BA                     l5971:	
  3433  03BA  0873               	movf	((delay_ms@ms_count+1)),w
  3434  03BB  0472               	iorwf	((delay_ms@ms_count)),w
  3435  03BC  1D03               	skipz
  3436  03BD  2BBF               	goto	u2561
  3437  03BE  2BC0               	goto	u2560
  3438  03BF                     u2561:
  3439  03BF  2BAA               	goto	l5967
  3440  03C0                     u2560:
  3441  03C0  2BC1               	goto	l1404
  3442                           	
  3443  03C1                     l1403:	
  3444                           	line	54
  3445                           	
  3446  03C1                     l1404:	
  3447  03C1  0008               	return
  3448                           	opt stack 0
  3449                           GLOBAL	__end_of_delay_ms
  3450  03C2                     	__end_of_delay_ms:
  3451 ;; =============== function _delay_ms ends ============
  3452                           
  3453                           	signat	_delay_ms,4216
  3454                           	global	_I2C_Init
  3455                           psect	text544,local,class=CODE,delta=2
  3456                           global __ptext544
  3457  035D                     __ptext544:
  3458                           
  3459 ;; *************** function _I2C_Init *****************
  3460 ;; Defined at:
  3461 ;;		line 39 in file "C:\Users\Xplore_labZ\Saved Games\Desktop\Sample_Programs_updated\Pic\Pro_Pic\RTC\RTC_LCD\i2c.c"
  3462 ;; Parameters:    Size  Location     Type
  3463 ;;		None
  3464 ;; Auto vars:     Size  Location     Type
  3465 ;;		None
  3466 ;; Return value:  Size  Location     Type
  3467 ;;		None               void
  3468 ;; Registers used:
  3469 ;;		None
  3470 ;; Tracked objects:
  3471 ;;		On entry : 0/0
  3472 ;;		On exit  : 0/0
  3473 ;;		Unchanged: 0/0
  3474 ;; Data sizes:     COMMON   BANK0   BANK1   BANK3   BANK2
  3475 ;;      Params:         0       0       0       0       0
  3476 ;;      Locals:         0       0       0       0       0
  3477 ;;      Temps:          0       0       0       0       0
  3478 ;;      Totals:         0       0       0       0       0
  3479 ;;Total ram usage:        0 bytes
  3480 ;; Hardware stack levels used:    1
  3481 ;; This function calls:
  3482 ;;		Nothing
  3483 ;; This function is called by:
  3484 ;;		_DS1307_Init
  3485 ;; This function uses a non-reentrant model
  3486 ;;
  3487                           psect	text544
  3488                           	file	"C:\Users\Xplore_labZ\Saved Games\Desktop\Sample_Programs_updated\Pic\Pro_Pic\RTC\
                                 RTC_LCD\i2c.c"
  3489                           	line	39
  3490                           	global	__size_of_I2C_Init
  3491  0005                     	__size_of_I2C_Init	equ	__end_of_I2C_Init-_I2C_Init
  3492                           	
  3493  035D                     _I2C_Init:	
  3494                           	opt	stack 6
  3495                           ; Regs used in _I2C_Init: []
  3496                           	line	40
  3497                           	
  3498  035D                     l5927:	
  3499                           ;i2c.c: 40: TRISC3=0;
  3500  035D  1683               	bsf	status, 5	;RP0=1, select bank1
  3501  035E  1303               	bcf	status, 6	;RP1=0, select bank1
  3502  035F  1187               	bcf	(1083/8)^080h,(1083)&7
  3503                           	line	41
  3504                           ;i2c.c: 41: TRISC4=0;
  3505  0360  1207               	bcf	(1084/8)^080h,(1084)&7
  3506                           	line	42
  3507                           	
  3508  0361                     l2818:	
  3509  0361  0008               	return
  3510                           	opt stack 0
  3511                           GLOBAL	__end_of_I2C_Init
  3512  0362                     	__end_of_I2C_Init:
  3513 ;; =============== function _I2C_Init ends ============
  3514                           
  3515                           	signat	_I2C_Init,88
  3516                           	global	_delay_us
  3517                           psect	text545,local,class=CODE,delta=2
  3518                           global __ptext545
  3519  0399                     __ptext545:
  3520                           
  3521 ;; *************** function _delay_us *****************
  3522 ;; Defined at:
  3523 ;;		line 26 in file "C:\Users\Xplore_labZ\Saved Games\Desktop\Sample_Programs_updated\Pic\Pro_Pic\RTC\RTC_LCD\delay.c"
  3524 ;; Parameters:    Size  Location     Type
  3525 ;;  us_count        2    0[COMMON] unsigned int 
  3526 ;; Auto vars:     Size  Location     Type
  3527 ;;		None
  3528 ;; Return value:  Size  Location     Type
  3529 ;;		None               void
  3530 ;; Registers used:
  3531 ;;		wreg, status,2, status,0
  3532 ;; Tracked objects:
  3533 ;;		On entry : 0/0
  3534 ;;		On exit  : 0/0
  3535 ;;		Unchanged: 0/0
  3536 ;; Data sizes:     COMMON   BANK0   BANK1   BANK3   BANK2
  3537 ;;      Params:         2       0       0       0       0
  3538 ;;      Locals:         0       0       0       0       0
  3539 ;;      Temps:          0       0       0       0       0
  3540 ;;      Totals:         2       0       0       0       0
  3541 ;;Total ram usage:        2 bytes
  3542 ;; Hardware stack levels used:    1
  3543 ;; This function calls:
  3544 ;;		Nothing
  3545 ;; This function is called by:
  3546 ;;		_delay_ms
  3547 ;;		_I2C_Clock
  3548 ;;		_I2C_Start
  3549 ;;		_I2C_Stop
  3550 ;;		_I2C_Read
  3551 ;;		_LCD_Init
  3552 ;;		_LCD_CmdWrite
  3553 ;;		_LCD_DataWrite
  3554 ;; This function uses a non-reentrant model
  3555 ;;
  3556                           psect	text545
  3557                           	file	"C:\Users\Xplore_labZ\Saved Games\Desktop\Sample_Programs_updated\Pic\Pro_Pic\RTC\
                                 RTC_LCD\delay.c"
  3558                           	line	26
  3559                           	global	__size_of_delay_us
  3560  0010                     	__size_of_delay_us	equ	__end_of_delay_us-_delay_us
  3561                           	
  3562  0399                     _delay_us:	
  3563                           	opt	stack 4
  3564                           ; Regs used in _delay_us: [wreg+status,2+status,0]
  3565                           	line	27
  3566                           	
  3567  0399                     l5913:	
  3568                           ;delay.c: 27: while(us_count!=0)
  3569  0399  2BA1               	goto	l5917
  3570                           	
  3571  039A                     l1396:	
  3572                           	line	29
  3573                           	
  3574  039A                     l5915:	
  3575                           ;delay.c: 28: {
  3576                           ;delay.c: 29: us_count--;
  3577  039A  3001               	movlw	low(01h)
  3578  039B  02F0               	subwf	(delay_us@us_count),f
  3579  039C  3000               	movlw	high(01h)
  3580  039D  1C03               	skipc
  3581  039E  03F1               	decf	(delay_us@us_count+1),f
  3582  039F  02F1               	subwf	(delay_us@us_count+1),f
  3583  03A0  2BA1               	goto	l5917
  3584                           	line	30
  3585                           	
  3586  03A1                     l1395:	
  3587                           	line	27
  3588                           	
  3589  03A1                     l5917:	
  3590  03A1  0871               	movf	((delay_us@us_count+1)),w
  3591  03A2  0470               	iorwf	((delay_us@us_count)),w
  3592  03A3  1D03               	skipz
  3593  03A4  2BA6               	goto	u2491
  3594  03A5  2BA7               	goto	u2490
  3595  03A6                     u2491:
  3596  03A6  2B9A               	goto	l5915
  3597  03A7                     u2490:
  3598  03A7  2BA8               	goto	l1398
  3599                           	
  3600  03A8                     l1397:	
  3601                           	line	31
  3602                           	
  3603  03A8                     l1398:	
  3604  03A8  0008               	return
  3605                           	opt stack 0
  3606                           GLOBAL	__end_of_delay_us
  3607  03A9                     	__end_of_delay_us:
  3608 ;; =============== function _delay_us ends ============
  3609                           
  3610                           	signat	_delay_us,4216
  3611                           psect	text546,local,class=CODE,delta=2
  3612                           global __ptext546
  3613  0000                     __ptext546:
  3614                           	global	btemp
  3615  007E                     	btemp set 07Eh
  3616                           
  3617                           	DABS	1,126,2	;btemp
  3618                           	global	wtemp0
  3619  007E                     	wtemp0 set btemp


HI-TECH Software PICC Macro Assembler V9.83 build 10920 
Symbol Table                                                                                   Mon Dec 24 22:46:41 2012

                ?_LCD_GoToXY 0076           __size_of_I2C_Clock 0019           __size_of_I2C_NoAck 000C  
                          pc 0002           __size_of_I2C_Start 0029                ?_LCD_CmdWrite 0070  
         __size_of_I2C_Write 0035                           _RD 0C60                           _WR 0C61  
                         fsr 0004               ?_LCD_DataWrite 0070                          l710 07FD  
                        l707 07AB                          l708 07FC                          l709 07FD  
                        _GIE 005F                          _RB0 0030                          _RB1 0031  
                        _RB2 0032                          _RC3 003B                          _RC4 003C  
            __end_of_I2C_Ack 0380                          fsr0 0004                          indf 0000  
               _DS1307_Write 038C                         l1401 03BA                         l2113 041D  
                       l1402 03AA                         l2122 04C1                         l1403 03C1  
                       l2131 0773                         l1404 03C1                         l2116 0398  
                       l2125 04EB                         l2119 0373                         l2128 071B  
                       l1395 03A1                         l1396 039A                         l1397 03A8  
                       l1398 03A8                         l6001 0551                         l6011 0574  
                       l6003 0558                         l2821 03DA                         l6021 058D  
                       l6013 057D                         l6005 0559                         l6101 05FF  
                       l2830 0521                         l3534 0516                         l6015 057E  
                       l6007 0562                         l6031 0533                         l2831 0548  
                       l6023 0518                         l3551 05D2                         l6111 060E  
                       l6103 0600                         l3543 0368                         l2824 046E  
                       l2832 054B                         l2840 037F                         l3560 03FB  
                       l6017 0582                         l6009 056E                         l6033 0538  
                       l6025 0519                         l6041 0371                         l6105 0601  
                       l6121 0504                         l6113 04EC                         l6201 07EB  
                       l2818 0361                         l3554 0617                         l3546 0497  
                       l2827 0445                         l6019 058B                         l2835 0559  
                       l6035 053E                         l6027 0520                         l6043 0373  
                       l2843 038B                         l6051 0380                         l6107 0602  
                       l6123 050A                         l6115 04F5                         l6131 03E9  
                       l3547 0490                         l2836 0588                         l3548 0497  
                       l2837 058D                         l6037 0542                         l6029 0521  
                       l6045 0374                         l6053 0383                         l6061 0595  
                       l6109 060B                         l6125 0510                         l6117 04F8  
                       l3557 03EE                         l6133 03EE                         l6141 0484  
                       l3558 03DD                         l3582 06C3                         l6039 0369  
                       l6047 0377                         l6055 0388                         l6071 05AC  
                       l6063 0596                         l6119 04FE                         l3559 03FB  
                       l6127 03DC                         l6135 0362                         l6143 048A  
                       l6151 038D                         l6049 037C                         l6081 05C6  
                       l6073 05BA                         l6065 0597                         l6057 058F  
                       l6129 03DD                         l6145 0490                         l6137 0470  
                       l6161 0412                         l6153 03FC                         l6083 05C9  
                       l6075 05BB                         l6067 05A0                         l6059 0594  
                       l6091 05DB                         l6139 0476                         l3579 066D  
                       l6147 0619                         l6163 0418                         l6155 0401  
                       l6171 06E6                         l6077 05BC                         l6069 05A3  
                       l6093 05DC                         l6085 05D4                         l6149 066F  
                       l6157 0406                         l6165 0499                         l6173 06F1  
                       l6181 073E                         l6079 05BD                         l6095 05E5  
                       l6087 05D9                         l6159 040C                         l6167 04C3  
                       l6175 0701                         l6183 0749                         l6191 079A  
                       l6097 05E8                         l6089 05DA                         l6177 0706  
                       l6169 06C5                         l6185 0759                         l6193 07A0  
                       l6099 05F1                         l6187 075E                         l6179 071D  
                       l6195 07B9                         l6197 07C3                         l6189 0774  
                       l6199 07E1                         l5913 0399                         l5915 039A  
                       l5917 03A1                         l5927 035D                         l5971 03BA  
                       l5965 03A9                         l5981 046B                         l5973 0446  
                       l5967 03AA                         l5975 044A                         l5991 0442  
                       l5983 041E                         l5969 03B3                         l5977 0453  
                       l5985 0421                         l5993 03C2                         l5979 045F  
                       l5987 042A                         l5995 03CB                         l5989 0436  
                       l5997 03D7                         l5999 054C                         STR_1 0009  
                       STR_2 0010                         u2610 0530                         u2611 052C  
                       u2605 0524                         u2630 0548                         u2631 0547  
                       u2560 03C0                         u2624 0533                         u2561 03BF  
                       u2705 061C                         u2490 03A7                         u2570 0557  
                       u2491 03A6                         u2571 0556                         u2715 063A  
                       u2580 0588                         u2660 03FA                         u2581 0587  
                       u2645 05AF                         u2661 03F9                         u2725 0658  
                       u2590 051F                         u2670 0476                         u2591 051E  
                       u2655 05F4                         u2671 0475                         u2735 0672  
                       u2745 0690                         u2690 048A                         u2691 0489  
                       u2755 06AE                         u2685 0479                         _WREN 0C62  
                       _main 0774             __end_of_I2C_Init 0362             __end_of_I2C_Read 058E  
                       btemp 007E             __end_of_I2C_Stop 0446                         start 0000  
             ??_LCD_CmdWrite 0074             __end_of_LCD_Init 0517             DS1307_SetDate@dd 0079  
           DS1307_SetDate@mm 0077             DS1307_SetDate@yy 0078                        ?_main 0070  
                      _EEADR 010D                        _CARRY 0018   __end_of_LCD_DisplayRtcDate 06C4  
                      _PORTB 0006                        _TRISB 0086   __end_of_LCD_DisplayRtcTime 066E  
           DS1307_SetTime@hh 0079             DS1307_SetTime@mm 0077             DS1307_SetTime@ss 0078  
             _DS1307_GetDate 071C               _DS1307_GetTime 06C4            __end_of_I2C_Clock 03DB  
          __end_of_I2C_NoAck 038C          __size_of_LCD_GoToXY 0029            __end_of_I2C_Start 046F  
           ?_LCD_GoToLineTwo 0070            __end_of_I2C_Write 054C                        pclath 000A  
             _DS1307_SetDate 04C2               _DS1307_SetTime 0498                        status 0003  
                      wtemp0 007E                 __end_of_main 0800              ??_LCD_DataWrite 0074  
                  ??_I2C_Ack 0072                       ??_main 007C       __end_of_DS1307_GetDate 0774  
     __end_of_DS1307_GetTime 071C                    I2C_Read@i 0074       __end_of_DS1307_SetDate 04EC  
                     _EEDATA 010C                       _EECON1 018C                       _EECON2 018D  
     __end_of_DS1307_SetTime 04C2      LCD_DisplayRtcDate@month 0076                       _TRISC3 043B  
                     _TRISC4 043C             __end_of_delay_ms 03C2             __end_of_delay_us 03A9  
              LCD_GoToXY@col 0076                LCD_GoToXY@pos 007A                LCD_GoToXY@row 0079  
                  ?_I2C_Init 0070                    ?_I2C_Read 0070              ?_DS1307_GetDate 0078  
                  ?_I2C_Stop 0070              ?_DS1307_GetTime 0078              ?_DS1307_SetDate 0077  
            ?_DS1307_SetTime 0077         __end_of_LCD_CmdWrite 05D3                    ?_LCD_Init 0070  
             __pcstackCOMMON 0070                 ??_LCD_GoToXY 0077                   ??_I2C_Init 0070  
                 ??_I2C_Read 0072        LCD_DisplayRtcDate@day 0079                   ??_I2C_Stop 0072  
              ??_DS1307_Init 0077                ??_DS1307_Read 0076           __end_of_LCD_GoToXY 0498  
                 ??_LCD_Init 0076        LCD_DisplayRtcTime@min 0076        LCD_DisplayRtcTime@sec 0077  
                 __pmaintext 0774                      _I2C_Ack 0374                   I2C_Write@i 0075  
                  ?_delay_ms 0072                    ?_delay_us 0070           _LCD_DisplayRtcDate 066E  
                  _I2C_Clock 03C2                    _I2C_NoAck 0380           _LCD_DisplayRtcTime 0618  
           delay_ms@ms_count 0072                    _I2C_Start 0446                    _I2C_Write 0517  
        __end_of_DS1307_Init 041E          __end_of_DS1307_Read 0374          ?_LCD_DisplayRtcDate 0076  
        ?_LCD_DisplayRtcTime 0076                 I2C_Write@dat 0074             LCD_DataWrite@dat 0075  
      __size_of_LCD_CmdWrite 0045                   ??_delay_ms 0074                   ??_delay_us 0072  
       ??_LCD_DisplayRtcDate 0078         ??_LCD_DisplayRtcTime 0078                      main@day 0023  
                    main@min 0021                      main@sec 0020         end_of_initialization 0359  
                 ?_I2C_Clock 0070                   ?_I2C_NoAck 0070                   ?_I2C_Start 0070  
                 ?_I2C_Write 0070     __size_of_LCD_GoToLineTwo 0007                 _LCD_CmdWrite 058E  
           ??_DS1307_GetDate 007A        __end_of_LCD_DataWrite 0618             ??_DS1307_GetTime 007A  
           ??_DS1307_SetDate 0079             ??_DS1307_SetTime 0079            __size_of_I2C_Init 0005  
          __size_of_I2C_Read 0042            __size_of_I2C_Stop 0028                  _DS1307_Init 03FC  
                _DS1307_Read 0369            __size_of_LCD_Init 002B             delay_us@us_count 0070  
        start_initialization 0359                ?_DS1307_Write 0070                  ??_I2C_Clock 0072  
                ??_I2C_NoAck 0072                  ??_I2C_Start 0072       LCD_DisplayRtcDate@year 0077  
                ??_I2C_Write 0072              DS1307_Write@dat 0076                     ?_I2C_Ack 0070  
          ??_LCD_GoToLineTwo 0076               ??_DS1307_Write 0076                __pcstackBANK0 0020  
          __size_of_delay_ms 0019            __size_of_delay_us 0010                  I2C_Read@dat 0075  
     LCD_DisplayRtcTime@hour 0079                    __ptext520 0000                    __ptext521 071C  
                  __ptext530 0362                    __ptext522 06C4                    __ptext531 03DB  
                  __ptext523 04C2                    __ptext540 03C2                    __ptext532 04EC  
                  __ptext524 0498                    __ptext541 041E                    __ptext533 05D3  
                  __ptext525 03FC                    __ptext542 0446                    __ptext534 058E  
                  __ptext526 038C                    __ptext543 03A9                    __ptext535 0380  
                  __ptext527 066E                    __ptext544 035D                    __ptext536 0374  
                  __ptext528 0618                    __ptext545 0399                    __ptext537 0369  
                  __ptext529 046F                    __ptext546 0000                    __ptext538 0517  
                  __ptext539 054C  LCD_DisplayString@string_ptr 0077                    __pstrings 0003  
                   _I2C_Init 035D                     _I2C_Read 054C                     _I2C_Stop 041E  
          _LCD_DisplayString 03DB           ?_LCD_DisplayString 0070                     _LCD_Init 04EC  
        ??_LCD_DisplayString 0076              LCD_CmdWrite@cmd 0075             __size_of_I2C_Ack 000C  
                __stringbase 0008    __end_of_LCD_DisplayString 03FC               DS1307_Read@dat 0077  
                  main@month 0024  __size_of_LCD_DisplayRtcDate 0056  __size_of_LCD_DisplayRtcTime 0056  
               ?_DS1307_Init 0070                 ?_DS1307_Read 0070         __end_of_DS1307_Write 0399  
        DS1307_GetDate@d_ptr 007B          DS1307_GetDate@m_ptr 0078                     _delay_ms 03A9  
                   _delay_us 0399          DS1307_GetDate@y_ptr 0079                __size_of_main 008C  
     __size_of_LCD_DataWrite 0045              _LCD_GoToLineTwo 0362                   _LCD_GoToXY 046F  
                   main@hour 0022                     main@year 0025   __size_of_LCD_DisplayString 0021  
    __size_of_DS1307_GetDate 0058      __size_of_DS1307_GetTime 0058      __size_of_DS1307_SetDate 002A  
    __size_of_DS1307_SetTime 002A                    stringcode 0003                _LCD_DataWrite 05D3  
                   stringdir 0003                     stringtab 0003      __end_of_LCD_GoToLineTwo 0369  
      __size_of_DS1307_Write 000D          DS1307_GetTime@h_ptr 007B          DS1307_GetTime@m_ptr 0078  
        DS1307_GetTime@s_ptr 0079         __size_of_DS1307_Init 0022         __size_of_DS1307_Read 000B  
